	.file "distencworkercli.pas"
# Begin asmlist al_begin

.section .text.b_DEBUGSTART_$P$DISTENCWORKERCLI,"ax"
.globl	DEBUGSTART_$P$DISTENCWORKERCLI
DEBUGSTART_$P$DISTENCWORKERCLI:
# End asmlist al_begin
# Begin asmlist al_procedures

.section .text.n_p$distencworkercli$_$log$text$ansistring_$$_fin$00000008,"ax"
	.balign 16,0x90
.globl	P$DISTENCWORKERCLI$_$LOG$TEXT$ANSISTRING_$$_fin$00000008
P$DISTENCWORKERCLI$_$LOG$TEXT$ANSISTRING_$$_fin$00000008:
.Lc2:
.seh_proc P$DISTENCWORKERCLI$_$LOG$TEXT$ANSISTRING_$$_fin$00000008
.Ll1:
	pushq	%rbp
.seh_pushreg %rbp
.Lc3:
.Lc4:
	movq	%rcx,%rbp
.Lc5:
	leaq	-32(%rsp),%rsp
.seh_stackalloc 32
.seh_endprologue
.Ll2:
	leaq	-16(%rbp),%rcx
	call	fpc_ansistr_decr_ref
	leaq	-56(%rbp),%rcx
	call	fpc_ansistr_decr_ref
	leaq	-24(%rbp),%rcx
	call	fpc_ansistr_decr_ref
.Ll3:
	nop
	leaq	32(%rsp),%rsp
	popq	%rbp
.Lc6:
	ret
.seh_endproc
.Lc1:
.Lt4:
.Ll4:

.section .text.n_p$distencworkercli_$$_log$text$ansistring,"ax"
	.balign 16,0x90
.globl	P$DISTENCWORKERCLI_$$_LOG$TEXT$ANSISTRING
P$DISTENCWORKERCLI_$$_LOG$TEXT$ANSISTRING:
.Lc8:
.seh_proc P$DISTENCWORKERCLI_$$_LOG$TEXT$ANSISTRING
.Ll5:
	pushq	%rbp
.seh_pushreg %rbp
.Lc9:
.Lc10:
	movq	%rsp,%rbp
.Lc11:
	leaq	-112(%rsp),%rsp
.seh_stackalloc 112
.seh_endprologue
	movq	%rcx,-8(%rbp)
# Peephole Optimization: MovMov2MovMov1 done
	movq	%rdx,-16(%rbp)
	movq	%rdx,%rcx
	call	fpc_ansistr_incr_ref
.Ll6:
	movq	$0,-56(%rbp)
	movq	$0,-24(%rbp)
.Lj11:
	nop
.Lj7:
# Peephole Optimization: MovMov2Mov 3 done
.Ll7:
	movq	-8(%rbp),%rcx
	call	SYSTEM_$$_APPEND$TEXT
	call	fpc_iocheck
.Ll8:
	leaq	-24(%rbp),%rcx
	call	fpc_ansistr_decr_ref
	call	SYSUTILS_$$_NOW$$TDATETIME
	movapd	%xmm0,%xmm1
	xorb	%r8b,%r8b
	leaq	-56(%rbp),%rcx
	call	SYSUTILS_$$_DATETIMETOSTR$TDATETIME$BOOLEAN$$ANSISTRING
	movq	-56(%rbp),%rax
	movq	%rax,-48(%rbp)
	leaq	.Ld9(%rip),%rax
	movq	%rax,-40(%rbp)
	movq	-16(%rbp),%rax
	movq	%rax,-32(%rbp)
	leaq	-48(%rbp),%rdx
	movl	$65535,%r9d
# Peephole Optimization: movq $2,%r8 -> movl $2,%r8d (immediate can be represented with just 32 bits)
	movl	$2,%r8d
	leaq	-24(%rbp),%rcx
	call	fpc_ansistr_concat_multi
	movq	-24(%rbp),%r8
	movq	-8(%rbp),%rdx
	xorl	%ecx,%ecx
	call	fpc_write_text_ansistr
	call	fpc_iocheck
	movq	-8(%rbp),%rcx
	call	fpc_writeln_end
	call	fpc_iocheck
.Ll9:
	movq	-8(%rbp),%rcx
	call	OBJPAS_$$_CLOSEFILE$TEXT
	call	fpc_iocheck
.Lj9:
.Ll10:
	nop
.Lj8:
	movq	%rbp,%rcx
	call	P$DISTENCWORKERCLI$_$LOG$TEXT$ANSISTRING_$$_fin$00000008
.Ll11:
	leaq	(%rbp),%rsp
	popq	%rbp
	ret
.seh_handler __FPC_specific_handler,@unwind
.seh_handlerdata
	.long	1
	.long	0
	.rva	.Lj7
	.rva	.Lj8
	.rva	P$DISTENCWORKERCLI$_$LOG$TEXT$ANSISTRING_$$_fin$00000008

.section .text.n_p$distencworkercli_$$_log$text$ansistring,"ax"
.seh_endproc
.Lc7:
.Lt3:
.Ll12:

.section .text.n_p$distencworkercli$_$saveini_$$_fin$0000000b,"ax"
	.balign 16,0x90
.globl	P$DISTENCWORKERCLI$_$SAVEINI_$$_fin$0000000B
P$DISTENCWORKERCLI$_$SAVEINI_$$_fin$0000000B:
.Lc13:
.seh_proc P$DISTENCWORKERCLI$_$SAVEINI_$$_fin$0000000B
.Ll13:
	pushq	%rbp
.seh_pushreg %rbp
.Lc14:
.Lc15:
	movq	%rcx,%rbp
.Lc16:
	leaq	-32(%rsp),%rsp
.seh_stackalloc 32
.seh_endprologue
# Peephole Optimization: LeaMov2Lea done
.Ll14:
	leaq	U_$P$DISTENCWORKERCLI_$$_SETTINGSINI(%rip),%rcx
	call	SYSUTILS_$$_FREEANDNIL$formal
.Ll15:
	nop
	leaq	32(%rsp),%rsp
	popq	%rbp
.Lc17:
	ret
.seh_endproc
.Lc12:
.Lt6:
.Ll16:

.section .text.n_p$distencworkercli_$$_saveini,"ax"
	.balign 16,0x90
.globl	P$DISTENCWORKERCLI_$$_SAVEINI
P$DISTENCWORKERCLI_$$_SAVEINI:
.Lc19:
.seh_proc P$DISTENCWORKERCLI_$$_SAVEINI
.Ll17:
	pushq	%rbp
.seh_pushreg %rbp
.Lc20:
.Lc21:
	movq	%rsp,%rbp
.Lc22:
	leaq	-48(%rsp),%rsp
.seh_stackalloc 48
.seh_endprologue
# Peephole Optimization: MovMov2Mov 3 done
.Ll18:
	movq	U_$P$DISTENCWORKERCLI_$$_BASEPATH(%rip),%rcx
	call	SYSUTILS_$$_SETCURRENTDIR$RAWBYTESTRING$$BOOLEAN
.Ll19:
	movq	U_$P$DISTENCWORKERCLI_$$_SETTINGSFILE(%rip),%r8
	xorl	%r9d,%r9d
# Peephole Optimization: movq $1,%rdx -> movl $1,%edx (immediate can be represented with just 32 bits)
	movl	$1,%edx
	leaq	VMT_$INIFILES_$$_TINIFILE(%rip),%rcx
	leaq	VMT_$INIFILES_$$_TINIFILE(%rip),%rax
	call	*200(%rax)
	movq	%rax,U_$P$DISTENCWORKERCLI_$$_SETTINGSINI(%rip)
.Lj20:
.Ll20:
	nop
.Lj16:
.Ll21:
	movq	U_$P$DISTENCWORKERCLI_$$_OF_COOKIE(%rip),%r9
	movq	U_$P$DISTENCWORKERCLI_$$_SETTINGSINI(%rip),%rcx
	leaq	.Ld10(%rip),%r8
	leaq	.Ld11(%rip),%rdx
	movq	U_$P$DISTENCWORKERCLI_$$_SETTINGSINI(%rip),%rax
	movq	(%rax),%rax
	call	*232(%rax)
.Ll22:
	movsd	U_$P$DISTENCWORKERCLI_$$_OF_COOKIE_TIME(%rip),%xmm0
	movq	U_$P$DISTENCWORKERCLI_$$_SETTINGSINI(%rip),%rcx
	leaq	.Ld12(%rip),%r8
	leaq	.Ld11(%rip),%rdx
	movq	U_$P$DISTENCWORKERCLI_$$_SETTINGSINI(%rip),%rax
	movq	(%rax),%rax
	movapd	%xmm0,%xmm3
	call	*336(%rax)
.Lj18:
.Ll23:
	nop
.Lj17:
	movq	%rbp,%rcx
	call	P$DISTENCWORKERCLI$_$SAVEINI_$$_fin$0000000B
.Ll24:
	leaq	(%rbp),%rsp
	popq	%rbp
	ret
.seh_handler __FPC_specific_handler,@unwind
.seh_handlerdata
	.long	1
	.long	0
	.rva	.Lj16
	.rva	.Lj17
	.rva	P$DISTENCWORKERCLI$_$SAVEINI_$$_fin$0000000B

.section .text.n_p$distencworkercli_$$_saveini,"ax"
.seh_endproc
.Lc18:
.Lt5:
.Ll25:

.section .text.n_p$distencworkercli$_$loadini_$$_fin$00000012,"ax"
	.balign 16,0x90
.globl	P$DISTENCWORKERCLI$_$LOADINI_$$_fin$00000012
P$DISTENCWORKERCLI$_$LOADINI_$$_fin$00000012:
.Lc24:
.seh_proc P$DISTENCWORKERCLI$_$LOADINI_$$_fin$00000012
.Ll26:
	pushq	%rbp
.seh_pushreg %rbp
.Lc25:
.Lc26:
	movq	%rcx,%rbp
.Lc27:
	leaq	-32(%rsp),%rsp
.seh_stackalloc 32
.seh_endprologue
# Peephole Optimization: LeaMov2Lea done
.Ll27:
	leaq	U_$P$DISTENCWORKERCLI_$$_SETTINGSINI(%rip),%rcx
	call	SYSUTILS_$$_FREEANDNIL$formal
.Ll28:
	nop
	leaq	32(%rsp),%rsp
	popq	%rbp
.Lc28:
	ret
.seh_endproc
.Lc23:
.Lt8:
.Ll29:

.section .text.n_p$distencworkercli$_$loadini_$$_fin$00000013,"ax"
	.balign 16,0x90
.globl	P$DISTENCWORKERCLI$_$LOADINI_$$_fin$00000013
P$DISTENCWORKERCLI$_$LOADINI_$$_fin$00000013:
.Lc30:
.seh_proc P$DISTENCWORKERCLI$_$LOADINI_$$_fin$00000013
.Ll30:
	pushq	%rbp
.seh_pushreg %rbp
.Lc31:
.Lc32:
	movq	%rcx,%rbp
.Lc33:
	leaq	-32(%rsp),%rsp
.seh_stackalloc 32
.seh_endprologue
.Ll31:
	leaq	-8(%rbp),%rcx
	call	fpc_ansistr_decr_ref
.Ll32:
	nop
	leaq	32(%rsp),%rsp
	popq	%rbp
.Lc34:
	ret
.seh_endproc
.Lc29:
.Lt9:
.Ll33:

.section .text.n_p$distencworkercli_$$_loadini,"ax"
	.balign 16,0x90
.globl	P$DISTENCWORKERCLI_$$_LOADINI
P$DISTENCWORKERCLI_$$_LOADINI:
.Lc36:
.seh_proc P$DISTENCWORKERCLI_$$_LOADINI
.Ll34:
	pushq	%rbp
.seh_pushreg %rbp
.Lc37:
.Lc38:
	movq	%rsp,%rbp
.Lc39:
	leaq	-80(%rsp),%rsp
.seh_stackalloc 80
.seh_endprologue
.Ll35:
	movq	$0,-8(%rbp)
.Lj31:
	nop
.Lj27:
.Ll36:
	movq	U_$P$DISTENCWORKERCLI_$$_SETTINGSFILE(%rip),%rax
	xorl	%r9d,%r9d
# Peephole Optimization: movq $1,%rdx -> movl $1,%edx (immediate can be represented with just 32 bits)
	movl	$1,%edx
	leaq	VMT_$INIFILES_$$_TINIFILE(%rip),%rcx
	leaq	VMT_$INIFILES_$$_TINIFILE(%rip),%r10
	movq	%rax,%r8
	call	*200(%r10)
	movq	%rax,U_$P$DISTENCWORKERCLI_$$_SETTINGSINI(%rip)
.Lj36:
.Ll37:
	nop
.Lj32:
.Ll38:
	leaq	.Ld13(%rip),%rax
	movq	%rax,32(%rsp)
	movq	U_$P$DISTENCWORKERCLI_$$_SETTINGSINI(%rip),%rcx
	leaq	.Ld14(%rip),%r9
	leaq	.Ld15(%rip),%r8
	leaq	-8(%rbp),%rdx
	movq	U_$P$DISTENCWORKERCLI_$$_SETTINGSINI(%rip),%rax
	movq	(%rax),%rax
	call	*224(%rax)
	movq	-8(%rbp),%rdx
	leaq	U_$P$DISTENCWORKERCLI_$$_SERVERIP(%rip),%rcx
	call	fpc_ansistr_assign
.Ll39:
	movq	U_$P$DISTENCWORKERCLI_$$_SETTINGSINI(%rip),%rcx
	movl	$6666,%r9d
	leaq	.Ld16(%rip),%r8
	leaq	.Ld15(%rip),%rdx
	movq	U_$P$DISTENCWORKERCLI_$$_SETTINGSINI(%rip),%rax
	movq	(%rax),%rax
	call	*240(%rax)
	movw	%ax,U_$P$DISTENCWORKERCLI_$$_SERVERPORT(%rip)
.Ll40:
	leaq	.Ld17(%rip),%rax
	movq	%rax,32(%rsp)
	movq	U_$P$DISTENCWORKERCLI_$$_SETTINGSINI(%rip),%rcx
	leaq	.Ld18(%rip),%r9
	leaq	.Ld19(%rip),%r8
	leaq	-8(%rbp),%rdx
	movq	U_$P$DISTENCWORKERCLI_$$_SETTINGSINI(%rip),%rax
	movq	(%rax),%rax
	call	*224(%rax)
	movq	-8(%rbp),%rdx
	leaq	U_$P$DISTENCWORKERCLI_$$_WORKERNAME(%rip),%rcx
	call	fpc_ansistr_assign
.Ll41:
	movq	U_$P$DISTENCWORKERCLI_$$_SETTINGSINI(%rip),%rcx
	xorl	%r9d,%r9d
	leaq	.Ld20(%rip),%r8
	leaq	.Ld19(%rip),%rdx
	movq	U_$P$DISTENCWORKERCLI_$$_SETTINGSINI(%rip),%rax
	movq	(%rax),%rax
	call	*240(%rax)
	movl	%eax,U_$P$DISTENCWORKERCLI_$$_CORECOUNT(%rip)
.Ll42:
	leaq	.Ld21(%rip),%rax
	movq	%rax,32(%rsp)
	movq	U_$P$DISTENCWORKERCLI_$$_SETTINGSINI(%rip),%rcx
	leaq	.Ld22(%rip),%r9
	leaq	.Ld19(%rip),%r8
	leaq	-8(%rbp),%rdx
	movq	U_$P$DISTENCWORKERCLI_$$_SETTINGSINI(%rip),%rax
	movq	(%rax),%rax
	call	*224(%rax)
	movq	-8(%rbp),%rdx
	leaq	U_$P$DISTENCWORKERCLI_$$_WORKDIRNAME(%rip),%rcx
	call	fpc_ansistr_assign
.Ll43:
	movq	TC_$P$DISTENCWORKERCLI_$$_OF_USER(%rip),%rax
	movq	%rax,32(%rsp)
	movq	U_$P$DISTENCWORKERCLI_$$_SETTINGSINI(%rip),%rcx
	leaq	.Ld23(%rip),%r9
	leaq	.Ld11(%rip),%r8
	leaq	-8(%rbp),%rdx
	movq	U_$P$DISTENCWORKERCLI_$$_SETTINGSINI(%rip),%rax
	movq	(%rax),%rax
	call	*224(%rax)
	movq	-8(%rbp),%rdx
	leaq	TC_$P$DISTENCWORKERCLI_$$_OF_USER(%rip),%rcx
	call	fpc_ansistr_assign
.Ll44:
	movq	TC_$P$DISTENCWORKERCLI_$$_OF_PASS(%rip),%rax
	movq	%rax,32(%rsp)
	movq	U_$P$DISTENCWORKERCLI_$$_SETTINGSINI(%rip),%rcx
	leaq	.Ld24(%rip),%r9
	leaq	.Ld11(%rip),%r8
	leaq	-8(%rbp),%rdx
	movq	U_$P$DISTENCWORKERCLI_$$_SETTINGSINI(%rip),%rax
	movq	(%rax),%rax
	call	*224(%rax)
	movq	-8(%rbp),%rdx
	leaq	TC_$P$DISTENCWORKERCLI_$$_OF_PASS(%rip),%rcx
	call	fpc_ansistr_assign
.Ll45:
	movq	$0,32(%rsp)
	movq	U_$P$DISTENCWORKERCLI_$$_SETTINGSINI(%rip),%rcx
	leaq	.Ld10(%rip),%r9
	leaq	.Ld11(%rip),%r8
	leaq	-8(%rbp),%rdx
	movq	U_$P$DISTENCWORKERCLI_$$_SETTINGSINI(%rip),%rax
	movq	(%rax),%rax
	call	*224(%rax)
	movq	-8(%rbp),%rdx
	leaq	U_$P$DISTENCWORKERCLI_$$_OF_COOKIE(%rip),%rcx
	call	fpc_ansistr_assign
.Ll46:
	movl	$1,%r8d
	movl	$1,%edx
	movl	$2000,%ecx
	call	SYSUTILS_$$_ENCODEDATE$WORD$WORD$WORD$$TDATETIME
	movapd	%xmm0,%xmm3
	movq	U_$P$DISTENCWORKERCLI_$$_SETTINGSINI(%rip),%rcx
	leaq	.Ld12(%rip),%r8
	leaq	.Ld11(%rip),%rdx
	movq	U_$P$DISTENCWORKERCLI_$$_SETTINGSINI(%rip),%rax
	movq	(%rax),%rax
	call	*296(%rax)
	movsd	%xmm0,U_$P$DISTENCWORKERCLI_$$_OF_COOKIE_TIME(%rip)
.Ll47:
	movq	U_$P$DISTENCWORKERCLI_$$_SETTINGSINI(%rip),%rcx
	movl	$20,%r9d
	leaq	.Ld25(%rip),%r8
	leaq	.Ld11(%rip),%rdx
	movq	U_$P$DISTENCWORKERCLI_$$_SETTINGSINI(%rip),%rax
	movq	(%rax),%rax
	call	*240(%rax)
	movw	%ax,TC_$P$DISTENCWORKERCLI_$$_OF_COOKIE_INTERVAL(%rip)
.Lj34:
.Ll48:
	nop
.Lj33:
	movq	%rbp,%rcx
	call	P$DISTENCWORKERCLI$_$LOADINI_$$_fin$00000012
.Lj29:
.Ll49:
	nop
.Lj28:
	movq	%rbp,%rcx
	call	P$DISTENCWORKERCLI$_$LOADINI_$$_fin$00000013
.Ll50:
	leaq	(%rbp),%rsp
	popq	%rbp
	ret
.seh_handler __FPC_specific_handler,@unwind
.seh_handlerdata
	.long	2
	.long	0
	.rva	.Lj32
	.rva	.Lj33
	.rva	P$DISTENCWORKERCLI$_$LOADINI_$$_fin$00000012
	.long	0
	.rva	.Lj27
	.rva	.Lj28
	.rva	P$DISTENCWORKERCLI$_$LOADINI_$$_fin$00000013

.section .text.n_p$distencworkercli_$$_loadini,"ax"
.seh_endproc
.Lc35:
.Lt7:
.Ll51:

.section .text.n_p$distencworkercli_$$_getcpucores$$word,"ax"
	.balign 16,0x90
.globl	P$DISTENCWORKERCLI_$$_GETCPUCORES$$WORD
P$DISTENCWORKERCLI_$$_GETCPUCORES$$WORD:
.Lc41:
.seh_proc P$DISTENCWORKERCLI_$$_GETCPUCORES$$WORD
.Ll52:
	pushq	%rbp
.seh_pushreg %rbp
.Lc42:
.Lc43:
	movq	%rsp,%rbp
.Lc44:
	leaq	-48(%rsp),%rsp
.seh_stackalloc 48
.seh_endprologue
.Ll53:
	call	SYSTEM_$$_GETCPUCOUNT$$LONGWORD
	movw	%ax,-4(%rbp)
.Ll54:
	movzwl	-4(%rbp),%eax
	nop
	leaq	(%rbp),%rsp
	popq	%rbp
	ret
.seh_endproc
.Lc40:
.Lt10:
.Ll55:

.section .text.n_p$distencworkercli_$$_osversion$$ansistring,"ax"
	.balign 16,0x90
.globl	P$DISTENCWORKERCLI_$$_OSVERSION$$ANSISTRING
P$DISTENCWORKERCLI_$$_OSVERSION$$ANSISTRING:
.Lc46:
.seh_proc P$DISTENCWORKERCLI_$$_OSVERSION$$ANSISTRING
.Ll56:
	pushq	%rbp
.seh_pushreg %rbp
.Lc47:
.Lc48:
	movq	%rsp,%rbp
.Lc49:
	leaq	-48(%rsp),%rsp
.seh_stackalloc 48
.seh_endprologue
# Peephole Optimization: MovMov2MovMov1 done
	movq	%rcx,-8(%rbp)
# Peephole Optimization: MovMov2Mov 2 done
# Peephole Optimization: Mov2Nop done
.Ll57:
	leaq	.Ld26(%rip),%rdx
	call	fpc_ansistr_assign
.Ll58:
	nop
	leaq	(%rbp),%rsp
	popq	%rbp
	ret
.seh_endproc
.Lc45:
.Lt11:
.Ll59:

.section .text.n_p$distencworkercli$_$exectostrings$crca7075e84_$$_fin$00000031,"ax"
	.balign 16,0x90
.globl	P$DISTENCWORKERCLI$_$EXECTOSTRINGS$crcA7075E84_$$_fin$00000031
P$DISTENCWORKERCLI$_$EXECTOSTRINGS$crcA7075E84_$$_fin$00000031:
.Lc51:
.seh_proc P$DISTENCWORKERCLI$_$EXECTOSTRINGS$crcA7075E84_$$_fin$00000031
.Ll60:
	pushq	%rbp
.seh_pushreg %rbp
.Lc52:
.Lc53:
	movq	%rcx,%rbp
.Lc54:
	leaq	-32(%rsp),%rsp
.seh_stackalloc 32
.seh_endprologue
.Ll61:
	cmpq	$0,56(%rbp)
	jne	.Lj68
# Peephole Optimization: LeaMov2Lea done
	leaq	-40(%rbp),%rcx
	call	SYSUTILS_$$_FREEANDNIL$formal
.Lj68:
.Ll62:
	nop
	leaq	32(%rsp),%rsp
	popq	%rbp
.Lc55:
	ret
.seh_endproc
.Lc50:
.Lt13:
.Ll63:

.section .text.n_p$distencworkercli$_$exectostrings$crca7075e84_$$_fin$00000032,"ax"
	.balign 16,0x90
.globl	P$DISTENCWORKERCLI$_$EXECTOSTRINGS$crcA7075E84_$$_fin$00000032
P$DISTENCWORKERCLI$_$EXECTOSTRINGS$crcA7075E84_$$_fin$00000032:
.Lc57:
.seh_proc P$DISTENCWORKERCLI$_$EXECTOSTRINGS$crcA7075E84_$$_fin$00000032
.Ll64:
	pushq	%rbp
.seh_pushreg %rbp
.Lc58:
.Lc59:
	movq	%rcx,%rbp
.Lc60:
	leaq	-32(%rsp),%rsp
.seh_stackalloc 32
.seh_endprologue
.Ll65:
	movq	-16(%rbp),%rax
	movq	-32(%rbp),%rdx
	leaq	1(%rdx),%r8
	leaq	RTTI_$SYSTEM_$$_ANSISTRING(%rip),%rdx
	movq	%rax,%rcx
	call	fpc_finalize_array
	movq	-16(%rbp),%rcx
	call	fpc_freemem
.Ll66:
	nop
	leaq	32(%rsp),%rsp
	popq	%rbp
.Lc61:
	ret
.seh_endproc
.Lc56:
.Lt14:
.Ll67:

.section .text.n_p$distencworkercli_$$_exectostrings$crca7075e84,"ax"
	.balign 16,0x90
.globl	P$DISTENCWORKERCLI_$$_EXECTOSTRINGS$crcA7075E84
P$DISTENCWORKERCLI_$$_EXECTOSTRINGS$crcA7075E84:
.Lc63:
.seh_proc P$DISTENCWORKERCLI_$$_EXECTOSTRINGS$crcA7075E84
.Ll68:
	pushq	%rbp
.seh_pushreg %rbp
.Lc64:
.Lc65:
	movq	%rsp,%rbp
.Lc66:
	leaq	-16496(%rsp),%rsp
	movl	%eax,12404(%rsp)
	movl	%eax,8308(%rsp)
	movl	%eax,4212(%rsp)
	movl	%eax,116(%rsp)
	movl	%eax,(%rsp)
.seh_stackalloc 16496
	movq	%rbx,-16464(%rbp)
	movq	%rdi,-16456(%rbp)
	movq	%rsi,-16448(%rbp)
.seh_savereg %rbx, 32
.seh_savereg %rdi, 40
.seh_savereg %rsi, 48
.seh_endprologue
	movq	%rcx,-8(%rbp)
	movq	%rdx,-16(%rbp)
	movq	%r8,-32(%rbp)
	movl	%r9d,-24(%rbp)
	movq	-16(%rbp),%rax
	movq	-32(%rbp),%rdx
	leaq	1(%rdx),%rsi
	shlq	$3,%rsi
	movq	%rax,%rbx
	movq	%rsi,%rcx
	call	fpc_getmem
	movq	%rax,%rdi
	movq	%rsi,%r8
	movq	%rdi,%rdx
	movq	%rbx,%rcx
	call	SYSTEM_$$_MOVE$formal$formal$INT64
# Peephole Optimization: MovMov2MovMov1 done
	movq	%rdi,-16(%rbp)
	movq	%rdi,%rcx
	movq	-32(%rbp),%rax
	leaq	1(%rax),%r8
	leaq	RTTI_$SYSTEM_$$_ANSISTRING(%rip),%rdx
	call	fpc_addref_array
.Lj51:
.Ll69:
	nop
.Lj47:
.Lj56:
.Ll70:
	nop
.Lj52:
.Ll71:
	cmpq	$0,56(%rbp)
	je	.Lj58
	movq	56(%rbp),%rax
	movq	%rax,-40(%rbp)
.Lj58:
.Ll72:
	xorq	%r8,%r8
# Peephole Optimization: movq $1,%rdx -> movl $1,%edx (immediate can be represented with just 32 bits)
	movl	$1,%edx
	leaq	VMT_$PROCESS_$$_TPROCESS(%rip),%rcx
	leaq	VMT_$PROCESS_$$_TPROCESS(%rip),%rax
	call	*392(%rax)
# Peephole Optimization: MovMov2Mov 1
	movq	%rax,-40(%rbp)
.Ll73:
	leaq	208(%rax),%rcx
	movq	-8(%rbp),%rdx
	call	fpc_ansistr_assign
.Ll74:
	movq	-40(%rbp),%rcx
	movl	-24(%rbp),%edx
	call	PROCESS$_$TPROCESS_$__$$_SETPROCESSOPTIONS$TPROCESSOPTIONS
.Ll75:
	movq	-40(%rbp),%rax
	movq	216(%rax),%rcx
	movq	-16(%rbp),%rdx
	movq	-32(%rbp),%r8
	movq	-40(%rbp),%rax
	movq	216(%rax),%rax
	movq	(%rax),%rax
	call	*352(%rax)
.Ll76:
	movq	-40(%rbp),%rcx
	movq	-40(%rbp),%rax
	movq	(%rax),%rax
	call	*448(%rax)
.Ll77:
	movq	-40(%rbp),%rax
	testl	$4,112(%rax)
	je	.Lj54
.Ll78:
	movq	48(%rbp),%rax
	movq	$0,(%rax)
# Peephole Optimization: movq $1,%rdx -> movl $1,%edx (immediate can be represented with just 32 bits)
.Ll79:
	movl	$1,%edx
	leaq	VMT_$CLASSES_$$_TMEMORYSTREAM(%rip),%rcx
	call	SYSTEM$_$TOBJECT_$__$$_CREATE$$TOBJECT
	movq	%rax,-48(%rbp)
.Ll80:
	jmp	.Lj62
	.p2align 4,,10
	.p2align 3
.Lj61:
.Ll81:
	movq	-40(%rbp),%rax
	movq	296(%rax),%rcx
	leaq	-16436(%rbp),%rdx
	movl	$16384,%r8d
	movq	-40(%rbp),%rax
	movq	296(%rax),%rax
	movq	(%rax),%rax
	call	*256(%rax)
	movl	%eax,-52(%rbp)
.Ll82:
	leaq	-16436(%rbp),%rdx
	movl	-52(%rbp),%r8d
	movq	-48(%rbp),%rcx
	movq	-48(%rbp),%rax
	movq	(%rax),%rax
	call	*264(%rax)
.Lj62:
.Ll83:
	movq	-40(%rbp),%rax
	movq	296(%rax),%rcx
	call	PIPES$_$TINPUTPIPESTREAM_$__$$_GETNUMBYTESAVAILABLE$$LONGWORD
	movl	%eax,-16440(%rbp)
# Peephole Optimization: MovTestCmp2MovTestCmp 1
	testl	%eax,%eax
# Peephole Optimization: SETcc/TESTCmp/Jcc -> Jcc
	jne	.Lj61
	movq	-40(%rbp),%rcx
	call	PROCESS$_$TPROCESS_$__$$_GETRUNNING$$BOOLEAN
	testb	%al,%al
	jne	.Lj61
# Peephole Optimization: movq $1,%rdx -> movl $1,%edx (immediate can be represented with just 32 bits)
.Ll84:
	movl	$1,%edx
	leaq	VMT_$CLASSES_$$_TSTRINGLIST(%rip),%rcx
	call	CLASSES$_$TSTRINGS_$__$$_CREATE$$TSTRINGS
	movq	48(%rbp),%rdx
	movq	%rax,(%rdx)
# Peephole Optimization: xorq %rdx,%rdx -> xorl %edx,%edx (removes REX prefix)
.Ll85:
	xorl	%edx,%edx
	movq	-48(%rbp),%rcx
	movq	-48(%rbp),%rax
	movq	(%rax),%rax
	call	*216(%rax)
.Ll86:
	movq	48(%rbp),%rax
.Ll87:
	movq	(%rax),%rcx
	movq	-48(%rbp),%rdx
.Ll88:
	movq	48(%rbp),%rax
.Ll89:
	movq	(%rax),%rax
	movq	(%rax),%rax
	call	*464(%rax)
.Lj54:
.Ll90:
	nop
.Lj53:
	movq	%rbp,%rcx
	call	P$DISTENCWORKERCLI$_$EXECTOSTRINGS$crcA7075E84_$$_fin$00000031
.Lj49:
.Ll91:
	nop
.Lj48:
	movq	%rbp,%rcx
	call	P$DISTENCWORKERCLI$_$EXECTOSTRINGS$crcA7075E84_$$_fin$00000032
.Ll92:
	movq	-16464(%rbp),%rbx
	movq	-16456(%rbp),%rdi
	movq	-16448(%rbp),%rsi
	leaq	(%rbp),%rsp
	popq	%rbp
	ret
.seh_handler __FPC_specific_handler,@unwind
.seh_handlerdata
	.long	2
	.long	0
	.rva	.Lj52
	.rva	.Lj53
	.rva	P$DISTENCWORKERCLI$_$EXECTOSTRINGS$crcA7075E84_$$_fin$00000031
	.long	0
	.rva	.Lj47
	.rva	.Lj48
	.rva	P$DISTENCWORKERCLI$_$EXECTOSTRINGS$crcA7075E84_$$_fin$00000032

.section .text.n_p$distencworkercli_$$_exectostrings$crca7075e84,"ax"
.seh_endproc
.Lc62:
.Lt12:
.Ll93:

.section .text.n_p$distencworkercli$_$getofcookie$ansistring$$boolean_$$_fin$00000039,"ax"
	.balign 16,0x90
.globl	P$DISTENCWORKERCLI$_$GETOFCOOKIE$ANSISTRING$$BOOLEAN_$$_fin$00000039
P$DISTENCWORKERCLI$_$GETOFCOOKIE$ANSISTRING$$BOOLEAN_$$_fin$00000039:
.Lc68:
.seh_proc P$DISTENCWORKERCLI$_$GETOFCOOKIE$ANSISTRING$$BOOLEAN_$$_fin$00000039
.Ll94:
	pushq	%rbp
.seh_pushreg %rbp
.Lc69:
.Lc70:
	movq	%rcx,%rbp
.Lc71:
	leaq	-32(%rsp),%rsp
.seh_stackalloc 32
.seh_endprologue
.Ll95:
	leaq	-112(%rbp),%rcx
	call	fpc_ansistr_decr_ref
	leaq	-104(%rbp),%rcx
	call	fpc_ansistr_decr_ref
	leaq	-96(%rbp),%rcx
	call	fpc_ansistr_decr_ref
.Ll96:
	nop
	leaq	32(%rsp),%rsp
	popq	%rbp
.Lc72:
	ret
.seh_endproc
.Lc67:
.Lt16:
.Ll97:

.section .text.n_p$distencworkercli_$$_getofcookie$ansistring$$boolean,"ax"
	.balign 16,0x90
.globl	P$DISTENCWORKERCLI_$$_GETOFCOOKIE$ANSISTRING$$BOOLEAN
P$DISTENCWORKERCLI_$$_GETOFCOOKIE$ANSISTRING$$BOOLEAN:
.Lc74:
.seh_proc P$DISTENCWORKERCLI_$$_GETOFCOOKIE$ANSISTRING$$BOOLEAN
.Ll98:
	pushq	%rbp
.seh_pushreg %rbp
.Lc75:
.Lc76:
	movq	%rsp,%rbp
.Lc77:
	leaq	-176(%rsp),%rsp
.seh_stackalloc 176
	movq	%rbx,-120(%rbp)
.seh_savereg %rbx, 56
.seh_endprologue
# Peephole Optimization: MovMov2MovMov1 done
	movq	%rcx,-8(%rbp)
	movq	%rcx,%rax
	movq	$0,(%rax)
.Ll99:
	movq	$0,-112(%rbp)
	movq	$0,-104(%rbp)
	movq	$0,-96(%rbp)
.Lj77:
	nop
.Lj73:
# Peephole Optimization: movq $1,%rdx -> movl $1,%edx (immediate can be represented with just 32 bits)
.Ll100:
	movl	$1,%edx
	leaq	VMT_$CLASSES_$$_TSTRINGLIST(%rip),%rcx
	call	CLASSES$_$TSTRINGS_$__$$_CREATE$$TSTRINGS
	movq	%rax,-24(%rbp)
.Ll101:
	movq	$0,40(%rsp)
	leaq	-24(%rbp),%rax
	movq	%rax,32(%rsp)
	leaq	.Ld27(%rip),%rax
	movq	%rax,-88(%rbp)
	leaq	.Ld28(%rip),%rax
	movq	%rax,-80(%rbp)
	leaq	.Ld29(%rip),%rax
	movq	%rax,-72(%rbp)
	leaq	.Ld30(%rip),%rax
	movq	%rax,-64(%rbp)
	leaq	-96(%rbp),%rcx
	call	fpc_ansistr_decr_ref
	movq	TC_$P$DISTENCWORKERCLI_$$_OF_USER(%rip),%r8
	xorl	%r9d,%r9d
	leaq	.Ld31(%rip),%rdx
	leaq	-96(%rbp),%rcx
	call	fpc_ansistr_concat
	movq	-96(%rbp),%rax
	movq	%rax,-56(%rbp)
	leaq	.Ld30(%rip),%rax
	movq	%rax,-48(%rbp)
	leaq	-104(%rbp),%rcx
	call	fpc_ansistr_decr_ref
	movq	TC_$P$DISTENCWORKERCLI_$$_OF_PASS(%rip),%r8
	xorl	%r9d,%r9d
	leaq	.Ld32(%rip),%rdx
	leaq	-104(%rbp),%rcx
	call	fpc_ansistr_concat
	movq	-104(%rbp),%rax
	movq	%rax,-40(%rbp)
	movq	TC_$P$DISTENCWORKERCLI_$$_OF_URL(%rip),%rax
	movq	%rax,-32(%rbp)
	leaq	-88(%rbp),%rdx
	movq	U_$P$DISTENCWORKERCLI_$$_CURLPATH(%rip),%rcx
	movl	$12,%r9d
# Peephole Optimization: movq $7,%r8 -> movl $7,%r8d (immediate can be represented with just 32 bits)
	movl	$7,%r8d
	call	P$DISTENCWORKERCLI_$$_EXECTOSTRINGS$crcA7075E84
.Ll102:
	movq	-24(%rbp),%rcx
	leaq	-112(%rbp),%rdx
	movq	-24(%rbp),%rax
	movq	(%rax),%rax
	call	*272(%rax)
	movq	-112(%rbp),%rdx
# Peephole Optimization: movq $1,%r8 -> movl $1,%r8d (immediate can be represented with just 32 bits)
	movl	$1,%r8d
	leaq	.Ld33(%rip),%rcx
	call	SYSTEM_$$_POS$RAWBYTESTRING$RAWBYTESTRING$INT64$$INT64
	movl	%eax,-16(%rbp)
# Peephole Optimization: MovTestCmp2MovTestCmp 1
.Ll103:
	testl	%eax,%eax
	jna	.Lj79
.Ll104:
	movb	$1,-12(%rbp)
.Ll105:
	movq	-24(%rbp),%rcx
	leaq	-104(%rbp),%rdx
	movq	-24(%rbp),%rax
	movq	(%rax),%rax
	call	*272(%rax)
	movq	-104(%rbp),%rdx
	movl	-16(%rbp),%eax
	leaq	4(%rax),%r8
	movl	$59,%ecx
	call	STRUTILS_$$_POSEX$CHAR$ANSISTRING$QWORD$$INT64
	movq	%rax,%rbx
	movl	-16(%rbp),%eax
	subq	%rax,%rbx
	movq	-24(%rbp),%rcx
	leaq	-104(%rbp),%rdx
	movq	-24(%rbp),%rax
	movq	(%rax),%rax
	call	*272(%rax)
	movq	-104(%rbp),%rdx
	movl	-16(%rbp),%r8d
	movq	-8(%rbp),%rcx
	movq	%rbx,%r9
	call	fpc_ansistr_copy
.Ll106:
	call	fpc_get_output
	movq	%rax,%rbx
	leaq	-112(%rbp),%rcx
	call	fpc_ansistr_decr_ref
	movq	-8(%rbp),%rax
	movq	(%rax),%r8
	movl	$65535,%r9d
	leaq	.Ld34(%rip),%rdx
	leaq	-112(%rbp),%rcx
	call	fpc_ansistr_concat
	movq	-112(%rbp),%r8
	movq	%rbx,%rdx
	xorl	%ecx,%ecx
	call	fpc_write_text_ansistr
	call	fpc_iocheck
	movq	%rbx,%rcx
	call	fpc_writeln_end
	call	fpc_iocheck
	jmp	.Lj80
	.p2align 4,,10
	.p2align 3
.Lj79:
.Ll107:
	movb	$0,-12(%rbp)
.Lj80:
.Ll108:
	leaq	-24(%rbp),%rcx
	call	SYSUTILS_$$_FREEANDNIL$formal
	leaq	-24(%rbp),%rcx
	call	SYSUTILS_$$_FREEANDNIL$formal
.Lj75:
.Ll109:
	nop
.Lj74:
	movq	%rbp,%rcx
	call	P$DISTENCWORKERCLI$_$GETOFCOOKIE$ANSISTRING$$BOOLEAN_$$_fin$00000039
.Ll110:
	movb	-12(%rbp),%al
	movq	-120(%rbp),%rbx
	leaq	(%rbp),%rsp
	popq	%rbp
	ret
.seh_handler __FPC_specific_handler,@unwind
.seh_handlerdata
	.long	1
	.long	0
	.rva	.Lj73
	.rva	.Lj74
	.rva	P$DISTENCWORKERCLI$_$GETOFCOOKIE$ANSISTRING$$BOOLEAN_$$_fin$00000039

.section .text.n_p$distencworkercli_$$_getofcookie$ansistring$$boolean,"ax"
.seh_endproc
.Lc73:
.Lt15:
.Ll111:

.section .text.n_p$distencworkercli$_$inits_$$_fin$0000004a,"ax"
	.balign 16,0x90
.globl	P$DISTENCWORKERCLI$_$INITS_$$_fin$0000004A
P$DISTENCWORKERCLI$_$INITS_$$_fin$0000004A:
.Lc79:
.seh_proc P$DISTENCWORKERCLI$_$INITS_$$_fin$0000004A
.Ll112:
	pushq	%rbp
.seh_pushreg %rbp
.Lc80:
.Lc81:
	movq	%rcx,%rbp
.Lc82:
	leaq	-32(%rsp),%rsp
.seh_stackalloc 32
.seh_endprologue
.Ll113:
	leaq	-16(%rbp),%rcx
	call	fpc_ansistr_decr_ref
	leaq	-8(%rbp),%rcx
	call	fpc_ansistr_decr_ref
.Ll114:
	nop
	leaq	32(%rsp),%rsp
	popq	%rbp
.Lc83:
	ret
.seh_endproc
.Lc78:
.Lt18:
.Ll115:

.section .text.n_p$distencworkercli_$$_inits,"ax"
	.balign 16,0x90
.globl	P$DISTENCWORKERCLI_$$_INITS
P$DISTENCWORKERCLI_$$_INITS:
.Lc85:
.seh_proc P$DISTENCWORKERCLI_$$_INITS
.Ll116:
	pushq	%rbp
.seh_pushreg %rbp
.Lc86:
.Lc87:
	movq	%rsp,%rbp
.Lc88:
	leaq	-128(%rsp),%rsp
.seh_stackalloc 128
	movq	%rbx,-88(%rbp)
.seh_savereg %rbx, 40
.seh_endprologue
.Ll117:
	movq	$0,-16(%rbp)
	movq	$0,-8(%rbp)
.Lj89:
	nop
.Lj85:
.Ll118:
	xorl	%eax,%eax
	leaq	-16(%rbp),%rcx
	movl	%eax,%edx
	call	OBJPAS_$$_PARAMSTR$LONGINT$$ANSISTRING
	movq	-16(%rbp),%rdx
	leaq	-8(%rbp),%rcx
	call	SYSUTILS_$$_EXTRACTFILEPATH$RAWBYTESTRING$$RAWBYTESTRING
	movq	-8(%rbp),%rdx
	leaq	U_$P$DISTENCWORKERCLI_$$_BASEPATH(%rip),%rcx
	call	fpc_ansistr_assign
.Ll119:
	movq	U_$P$DISTENCWORKERCLI_$$_BASEPATH(%rip),%rdx
	leaq	U_$P$DISTENCWORKERCLI_$$_SETTINGSFILE(%rip),%rcx
	xorl	%r9d,%r9d
	leaq	.Ld35(%rip),%r8
	call	fpc_ansistr_concat
.Ll120:
	call	fpc_get_output
	movq	%rax,%rbx
	leaq	_$DISTENCWORKERCLI$_Ld36(%rip),%r8
	movq	%rbx,%rdx
	xorl	%ecx,%ecx
	call	fpc_write_text_shortstr
	call	fpc_iocheck
	movq	U_$P$DISTENCWORKERCLI_$$_SETTINGSFILE(%rip),%r8
	movq	%rbx,%rdx
	xorl	%ecx,%ecx
	call	fpc_write_text_ansistr
	call	fpc_iocheck
	leaq	_$DISTENCWORKERCLI$_Ld37(%rip),%r8
	movq	%rbx,%rdx
	xorl	%ecx,%ecx
	call	fpc_write_text_shortstr
	call	fpc_iocheck
	movq	U_$P$DISTENCWORKERCLI_$$_SETTINGSFILE(%rip),%rcx
	movb	$1,%dl
	call	SYSUTILS_$$_FILEEXISTS$RAWBYTESTRING$BOOLEAN$$BOOLEAN
	movb	%al,%r8b
	movq	%rbx,%rdx
	xorl	%ecx,%ecx
	call	fpc_write_text_boolean
	call	fpc_iocheck
	movq	%rbx,%rcx
	call	fpc_writeln_end
	call	fpc_iocheck
.Ll121:
	call	P$DISTENCWORKERCLI_$$_LOADINI
.Ll122:
	leaq	-8(%rbp),%rcx
	call	P$DISTENCWORKERCLI_$$_OSVERSION$$ANSISTRING
	movq	-8(%rbp),%rdx
	leaq	U_$P$DISTENCWORKERCLI_$$_OS(%rip),%rcx
	call	fpc_ansistr_assign
.Ll123:
	movq	U_$P$DISTENCWORKERCLI_$$_OS(%rip),%rcx
	leaq	.Ld38(%rip),%rdx
	call	fpc_ansistr_compare_equal
	testq	%rax,%rax
	jne	.Lj91
.Ll124:
	movq	U_$P$DISTENCWORKERCLI_$$_BASEPATH(%rip),%rax
	movq	%rax,-64(%rbp)
	leaq	.Ld39(%rip),%rax
	movq	%rax,-56(%rbp)
	leaq	.Ld40(%rip),%rax
	movq	%rax,-48(%rbp)
	leaq	.Ld41(%rip),%rax
	movq	%rax,-40(%rbp)
	leaq	.Ld40(%rip),%rax
	movq	%rax,-32(%rbp)
	leaq	.Ld42(%rip),%rax
	movq	%rax,-24(%rbp)
	leaq	-64(%rbp),%rdx
	leaq	U_$P$DISTENCWORKERCLI_$$_ENCODERPATH(%rip),%rcx
	xorl	%r9d,%r9d
# Peephole Optimization: movq $5,%r8 -> movl $5,%r8d (immediate can be represented with just 32 bits)
	movl	$5,%r8d
	call	fpc_ansistr_concat_multi
.Ll125:
	leaq	U_$P$DISTENCWORKERCLI_$$_CURLPATH(%rip),%rcx
	leaq	.Ld43(%rip),%rdx
	call	fpc_ansistr_assign
	jmp	.Lj92
	.p2align 4,,10
	.p2align 3
.Lj91:
.Ll126:
	movq	U_$P$DISTENCWORKERCLI_$$_OS(%rip),%rcx
	leaq	.Ld26(%rip),%rdx
	call	fpc_ansistr_compare_equal
	testq	%rax,%rax
	jne	.Lj92
.Ll127:
	movq	U_$P$DISTENCWORKERCLI_$$_BASEPATH(%rip),%rax
	movq	%rax,-64(%rbp)
	leaq	.Ld39(%rip),%rax
	movq	%rax,-56(%rbp)
	leaq	.Ld40(%rip),%rax
	movq	%rax,-48(%rbp)
	leaq	.Ld44(%rip),%rax
	movq	%rax,-40(%rbp)
	leaq	.Ld40(%rip),%rax
	movq	%rax,-32(%rbp)
	leaq	.Ld45(%rip),%rax
	movq	%rax,-24(%rbp)
	leaq	-64(%rbp),%rdx
	leaq	U_$P$DISTENCWORKERCLI_$$_ENCODERPATH(%rip),%rcx
	xorl	%r9d,%r9d
# Peephole Optimization: movq $5,%r8 -> movl $5,%r8d (immediate can be represented with just 32 bits)
	movl	$5,%r8d
	call	fpc_ansistr_concat_multi
.Ll128:
	movq	U_$P$DISTENCWORKERCLI_$$_BASEPATH(%rip),%rdx
	leaq	U_$P$DISTENCWORKERCLI_$$_CURLPATH(%rip),%rcx
	xorl	%r9d,%r9d
	leaq	.Ld46(%rip),%r8
	call	fpc_ansistr_concat
.Lj92:
.Ll129:
	movq	TC_$P$DISTENCWORKERCLI_$$_LOGFILENAME(%rip),%r8
	movq	U_$P$DISTENCWORKERCLI_$$_BASEPATH(%rip),%rdx
	leaq	U_$P$DISTENCWORKERCLI_$$_LOGFILEPATH(%rip),%rcx
	xorl	%r9d,%r9d
	call	fpc_ansistr_concat
.Ll130:
	movq	U_$P$DISTENCWORKERCLI_$$_LOGFILEPATH(%rip),%rdx
	leaq	U_$P$DISTENCWORKERCLI_$$_LOGFILE(%rip),%rcx
	call	OBJPAS_$$_ASSIGNFILE$TEXT$RAWBYTESTRING
.Ll131:
	movq	U_$P$DISTENCWORKERCLI_$$_LOGFILEPATH(%rip),%rcx
	movb	$1,%dl
	call	SYSUTILS_$$_FILEEXISTS$RAWBYTESTRING$BOOLEAN$$BOOLEAN
	testb	%al,%al
	jne	.Lj96
	leaq	U_$P$DISTENCWORKERCLI_$$_LOGFILE(%rip),%rcx
	call	SYSTEM_$$_REWRITE$TEXT
	call	fpc_iocheck
	leaq	U_$P$DISTENCWORKERCLI_$$_LOGFILE(%rip),%rcx
	call	SYSTEM_$$_CLOSE$TEXT
	call	fpc_iocheck
.Lj96:
.Ll132:
	movq	U_$P$DISTENCWORKERCLI_$$_BASEPATH(%rip),%rax
	movq	%rax,-40(%rbp)
	movq	U_$P$DISTENCWORKERCLI_$$_WORKDIRNAME(%rip),%rax
	movq	%rax,-32(%rbp)
	leaq	.Ld40(%rip),%rax
	movq	%rax,-24(%rbp)
	leaq	-40(%rbp),%rdx
	leaq	U_$P$DISTENCWORKERCLI_$$_WORKDIR(%rip),%rcx
	xorl	%r9d,%r9d
# Peephole Optimization: movq $2,%r8 -> movl $2,%r8d (immediate can be represented with just 32 bits)
	movl	$2,%r8d
	call	fpc_ansistr_concat_multi
.Ll133:
	movq	U_$P$DISTENCWORKERCLI_$$_WORKDIR(%rip),%rcx
	movb	$1,%dl
	call	SYSUTILS_$$_DIRECTORYEXISTS$RAWBYTESTRING$BOOLEAN$$BOOLEAN
	testb	%al,%al
	jne	.Lj98
.Ll134:
	movq	U_$P$DISTENCWORKERCLI_$$_WORKDIR(%rip),%rcx
	call	SYSUTILS_$$_CREATEDIR$RAWBYTESTRING$$BOOLEAN
	testb	%al,%al
	je	.Lj102
	movq	U_$P$DISTENCWORKERCLI_$$_WORKDIR(%rip),%rcx
	call	SYSUTILS_$$_SETCURRENTDIR$RAWBYTESTRING$$BOOLEAN
	jmp	.Lj102
	.p2align 4,,10
	.p2align 3
.Lj98:
.Ll135:
	movq	U_$P$DISTENCWORKERCLI_$$_WORKDIR(%rip),%rcx
	call	SYSUTILS_$$_SETCURRENTDIR$RAWBYTESTRING$$BOOLEAN
.Lj102:
.Ll136:
	call	fpc_get_output
	movq	%rax,%rbx
	leaq	_$DISTENCWORKERCLI$_Ld47(%rip),%r8
	movq	%rbx,%rdx
	xorl	%ecx,%ecx
	call	fpc_write_text_shortstr
	call	fpc_iocheck
	call	SYSUTILS_$$_NOW$$TDATETIME
	movsd	U_$P$DISTENCWORKERCLI_$$_OF_COOKIE_TIME(%rip),%xmm1
	call	DATEUTILS_$$_HOURSBETWEEN$TDATETIME$TDATETIME$$INT64
	movq	%rax,%r8
	movq	%rbx,%rdx
	xorl	%ecx,%ecx
	call	fpc_write_text_sint
	call	fpc_iocheck
	leaq	_$DISTENCWORKERCLI$_Ld48(%rip),%r8
	movq	%rbx,%rdx
	xorl	%ecx,%ecx
	call	fpc_write_text_shortstr
	call	fpc_iocheck
	movzwl	TC_$P$DISTENCWORKERCLI_$$_OF_COOKIE_INTERVAL(%rip),%r8d
	movq	%rbx,%rdx
	xorl	%ecx,%ecx
	call	fpc_write_text_uint
	call	fpc_iocheck
	movq	%rbx,%rcx
	call	fpc_writeln_end
	call	fpc_iocheck
.Ll137:
	call	SYSUTILS_$$_NOW$$TDATETIME
	movsd	U_$P$DISTENCWORKERCLI_$$_OF_COOKIE_TIME(%rip),%xmm1
	call	DATEUTILS_$$_HOURSBETWEEN$TDATETIME$TDATETIME$$INT64
	movzwl	TC_$P$DISTENCWORKERCLI_$$_OF_COOKIE_INTERVAL(%rip),%edx
	cmpq	%rdx,%rax
	jng	.Lj104
.Ll138:
	leaq	U_$P$DISTENCWORKERCLI_$$_OF_COOKIE(%rip),%rbx
	movq	%rbx,%rcx
	call	fpc_ansistr_decr_ref
	movq	%rbx,%rcx
	call	P$DISTENCWORKERCLI_$$_GETOFCOOKIE$ANSISTRING$$BOOLEAN
	testb	%al,%al
	je	.Lj104
	call	SYSUTILS_$$_NOW$$TDATETIME
	movsd	%xmm0,U_$P$DISTENCWORKERCLI_$$_OF_COOKIE_TIME(%rip)
.Lj104:
.Ll139:
	cmpl	$0,U_$P$DISTENCWORKERCLI_$$_CORECOUNT(%rip)
	jne	.Lj108
	call	P$DISTENCWORKERCLI_$$_GETCPUCORES$$WORD
# Peephole Optimization: var11
	andl	$65535,%eax
	movl	%eax,U_$P$DISTENCWORKERCLI_$$_CORECOUNT(%rip)
.Lj108:
.Ll140:
	call	fpc_get_output
	movq	%rax,%rbx
	leaq	_$DISTENCWORKERCLI$_Ld49(%rip),%r8
	movq	%rbx,%rdx
	xorl	%ecx,%ecx
	call	fpc_write_text_shortstr
	call	fpc_iocheck
	movq	U_$P$DISTENCWORKERCLI_$$_OS(%rip),%r8
	movq	%rbx,%rdx
	xorl	%ecx,%ecx
	call	fpc_write_text_ansistr
	call	fpc_iocheck
	movq	%rbx,%rcx
	call	fpc_writeln_end
	call	fpc_iocheck
.Ll141:
	call	fpc_get_output
	movq	%rax,%rbx
	movslq	U_$P$DISTENCWORKERCLI_$$_CORECOUNT(%rip),%r8
	movq	%rbx,%rdx
	xorl	%ecx,%ecx
	call	fpc_write_text_sint
	call	fpc_iocheck
	leaq	_$DISTENCWORKERCLI$_Ld50(%rip),%r8
	movq	%rbx,%rdx
	xorl	%ecx,%ecx
	call	fpc_write_text_shortstr
	call	fpc_iocheck
	movq	%rbx,%rcx
	call	fpc_writeln_end
	call	fpc_iocheck
.Ll142:
	call	fpc_get_output
	movq	%rax,%rbx
	leaq	_$DISTENCWORKERCLI$_Ld51(%rip),%r8
	movq	%rbx,%rdx
	xorl	%ecx,%ecx
	call	fpc_write_text_shortstr
	call	fpc_iocheck
	movq	%rbx,%rcx
	call	fpc_writeln_end
	call	fpc_iocheck
.Lj87:
.Ll143:
	nop
.Lj86:
	movq	%rbp,%rcx
	call	P$DISTENCWORKERCLI$_$INITS_$$_fin$0000004A
.Ll144:
	movq	-88(%rbp),%rbx
	leaq	(%rbp),%rsp
	popq	%rbp
	ret
.seh_handler __FPC_specific_handler,@unwind
.seh_handlerdata
	.long	1
	.long	0
	.rva	.Lj85
	.rva	.Lj86
	.rva	P$DISTENCWORKERCLI$_$INITS_$$_fin$0000004A

.section .text.n_p$distencworkercli_$$_inits,"ax"
.seh_endproc
.Lc84:
.Lt17:
.Ll145:

.section .text.n_p$distencworkercli$_$createjob$tstringlist_$$_fin$00000061,"ax"
	.balign 16,0x90
.globl	P$DISTENCWORKERCLI$_$CREATEJOB$TSTRINGLIST_$$_fin$00000061
P$DISTENCWORKERCLI$_$CREATEJOB$TSTRINGLIST_$$_fin$00000061:
.Lc90:
.seh_proc P$DISTENCWORKERCLI$_$CREATEJOB$TSTRINGLIST_$$_fin$00000061
.Ll146:
	pushq	%rbp
.seh_pushreg %rbp
.Lc91:
.Lc92:
	movq	%rcx,%rbp
.Lc93:
	leaq	-32(%rsp),%rsp
.seh_stackalloc 32
.seh_endprologue
.Ll147:
	leaq	-48(%rbp),%rcx
	call	fpc_ansistr_decr_ref
	leaq	-40(%rbp),%rcx
	call	fpc_ansistr_decr_ref
	leaq	-32(%rbp),%rcx
	call	fpc_ansistr_decr_ref
.Ll148:
	nop
	leaq	32(%rsp),%rsp
	popq	%rbp
.Lc94:
	ret
.seh_endproc
.Lc89:
.Lt20:
.Ll149:

.section .text.n_p$distencworkercli_$$_createjob$tstringlist,"ax"
	.balign 16,0x90
.globl	P$DISTENCWORKERCLI_$$_CREATEJOB$TSTRINGLIST
P$DISTENCWORKERCLI_$$_CREATEJOB$TSTRINGLIST:
.Lc96:
.seh_proc P$DISTENCWORKERCLI_$$_CREATEJOB$TSTRINGLIST
.Ll150:
	pushq	%rbp
.seh_pushreg %rbp
.Lc97:
.Lc98:
	movq	%rsp,%rbp
.Lc99:
	leaq	-128(%rsp),%rsp
.seh_stackalloc 128
	movq	%rbx,-72(%rbp)
.seh_savereg %rbx, 56
.seh_endprologue
	movq	%rcx,-8(%rbp)
.Ll151:
	movq	$0,-48(%rbp)
	movq	$0,-40(%rbp)
	movq	$0,-32(%rbp)
.Lj117:
	nop
.Lj113:
.Ll152:
	addl	$1,TC_$P$DISTENCWORKERCLI_$$_JOBCOUNT(%rip)
	movl	TC_$P$DISTENCWORKERCLI_$$_JOBCOUNT(%rip),%eax
	movq	%rax,-24(%rbp)
	leaq	INIT_$P$DISTENCWORKERCLI_$$_def00000062(%rip),%rdx
	leaq	-24(%rbp),%r9
	leaq	U_$P$DISTENCWORKERCLI_$$_JOBS(%rip),%rcx
# Peephole Optimization: movq $1,%r8 -> movl $1,%r8d (immediate can be represented with just 32 bits)
	movl	$1,%r8d
	call	fpc_dynarray_setlength
.Ll153:
	movl	$0,40(%rsp)
	movl	$1,32(%rsp)
	movq	-8(%rbp),%rax
	movq	(%rax),%rcx
	movl	$6,%r8d
	leaq	-40(%rbp),%rdx
	movq	-8(%rbp),%rax
	movq	(%rax),%rax
	movq	(%rax),%rax
	call	*240(%rax)
	movq	-40(%rbp),%rdx
	movq	U_$P$DISTENCWORKERCLI_$$_ENCODERPATH(%rip),%r9
	leaq	.Ld42(%rip),%r8
	leaq	-32(%rbp),%rcx
	call	STRUTILS_$$_STRINGREPLACE$crc429DFCAB
	movq	-32(%rbp),%r8
	movq	-8(%rbp),%rax
	movq	(%rax),%rcx
	movl	$6,%edx
	movq	-8(%rbp),%rax
	movq	(%rax),%rax
	movq	(%rax),%rax
	call	*280(%rax)
.Ll154:
	movq	-8(%rbp),%rax
	movq	(%rax),%rcx
	movl	$1,%r8d
	leaq	-40(%rbp),%rdx
	movq	-8(%rbp),%rax
	movq	(%rax),%rax
	movq	(%rax),%rax
	call	*240(%rax)
	movq	-40(%rbp),%rdx
	movq	U_$P$DISTENCWORKERCLI_$$_JOBS(%rip),%rcx
	movl	TC_$P$DISTENCWORKERCLI_$$_JOBCOUNT(%rip),%eax
	imulq	$152,%rax,%rax
	leaq	-152(%rcx,%rax),%rcx
	call	fpc_ansistr_assign
.Ll155:
	movq	-8(%rbp),%rax
	movq	(%rax),%rcx
	movl	$2,%r8d
	leaq	-40(%rbp),%rdx
	movq	-8(%rbp),%rax
	movq	(%rax),%rax
	movq	(%rax),%rax
	call	*240(%rax)
	movq	-40(%rbp),%rdx
	movq	U_$P$DISTENCWORKERCLI_$$_JOBS(%rip),%rcx
	movl	TC_$P$DISTENCWORKERCLI_$$_JOBCOUNT(%rip),%eax
	imulq	$152,%rax,%rax
	leaq	-144(%rcx,%rax),%rcx
	call	fpc_ansistr_assign
.Ll156:
	movq	-8(%rbp),%rax
	movq	(%rax),%rcx
	movl	$3,%r8d
	leaq	-40(%rbp),%rdx
	movq	-8(%rbp),%rax
	movq	(%rax),%rax
	movq	(%rax),%rax
	call	*240(%rax)
	movq	-40(%rbp),%rdx
	movq	U_$P$DISTENCWORKERCLI_$$_JOBS(%rip),%rcx
	movl	TC_$P$DISTENCWORKERCLI_$$_JOBCOUNT(%rip),%eax
	imulq	$152,%rax,%rax
	leaq	-32(%rcx,%rax),%rcx
	call	fpc_ansistr_assign
.Ll157:
	movq	-8(%rbp),%rax
	movq	(%rax),%rcx
	movl	$4,%r8d
	leaq	-40(%rbp),%rdx
	movq	-8(%rbp),%rax
	movq	(%rax),%rax
	movq	(%rax),%rax
	call	*240(%rax)
	movq	-40(%rbp),%rdx
	movq	U_$P$DISTENCWORKERCLI_$$_JOBS(%rip),%rcx
	movl	TC_$P$DISTENCWORKERCLI_$$_JOBCOUNT(%rip),%eax
	imulq	$152,%rax,%rax
	leaq	-24(%rcx,%rax),%rcx
	call	fpc_ansistr_assign
.Ll158:
	movq	-8(%rbp),%rax
	movq	(%rax),%rcx
	movl	$5,%r8d
	leaq	-40(%rbp),%rdx
	movq	-8(%rbp),%rax
	movq	(%rax),%rax
	movq	(%rax),%rax
	call	*240(%rax)
	movq	-40(%rbp),%rdx
	movq	U_$P$DISTENCWORKERCLI_$$_JOBS(%rip),%rcx
	movl	TC_$P$DISTENCWORKERCLI_$$_JOBCOUNT(%rip),%eax
	imulq	$152,%rax,%rax
	leaq	-136(%rcx,%rax),%rcx
	call	fpc_ansistr_assign
.Ll159:
	movq	-8(%rbp),%rax
	movq	(%rax),%rcx
	movl	$5,%r8d
	leaq	-40(%rbp),%rdx
	movq	-8(%rbp),%rax
	movq	(%rax),%rax
	movq	(%rax),%rax
	call	*240(%rax)
	movq	-40(%rbp),%r8
	movq	U_$P$DISTENCWORKERCLI_$$_JOBS(%rip),%rdx
	movl	TC_$P$DISTENCWORKERCLI_$$_JOBCOUNT(%rip),%eax
	imulq	$152,%rax,%rax
	leaq	-128(%rdx,%rax),%rcx
	movq	U_$P$DISTENCWORKERCLI_$$_WORKDIR(%rip),%rdx
	xorl	%r9d,%r9d
	call	fpc_ansistr_concat
.Ll160:
	movq	U_$P$DISTENCWORKERCLI_$$_JOBS(%rip),%rdx
	movl	TC_$P$DISTENCWORKERCLI_$$_JOBCOUNT(%rip),%eax
	imulq	$152,%rax,%rax
	leaq	-104(%rdx,%rax),%rcx
	movq	U_$P$DISTENCWORKERCLI_$$_WORKERNAME(%rip),%rdx
	call	fpc_ansistr_assign
.Ll161:
	movq	U_$P$DISTENCWORKERCLI_$$_JOBS(%rip),%rdx
	movl	TC_$P$DISTENCWORKERCLI_$$_JOBCOUNT(%rip),%eax
	imulq	$152,%rax,%rax
	movb	$0,-8(%rdx,%rax)
.Ll162:
	movq	-8(%rbp),%rax
	movq	(%rax),%rcx
	movl	$6,%r8d
	leaq	-40(%rbp),%rdx
	movq	-8(%rbp),%rax
	movq	(%rax),%rax
	movq	(%rax),%rax
	call	*240(%rax)
	movq	-40(%rbp),%rdx
	movq	U_$P$DISTENCWORKERCLI_$$_JOBS(%rip),%rcx
	movl	TC_$P$DISTENCWORKERCLI_$$_JOBCOUNT(%rip),%eax
	imulq	$152,%rax,%rax
	leaq	-72(%rcx,%rax),%rcx
	call	fpc_ansistr_assign
.Ll163:
	call	fpc_get_output
	movq	%rax,%rbx
	movq	-8(%rbp),%rax
	movq	(%rax),%rcx
	movl	$6,%r8d
	leaq	-48(%rbp),%rdx
	movq	-8(%rbp),%rax
	movq	(%rax),%rax
	movq	(%rax),%rax
	call	*240(%rax)
	movq	-48(%rbp),%r8
	movq	%rbx,%rdx
	xorl	%ecx,%ecx
	call	fpc_write_text_ansistr
	call	fpc_iocheck
	movq	%rbx,%rcx
	call	fpc_writeln_end
	call	fpc_iocheck
.Ll164:
	xorq	%r8,%r8
# Peephole Optimization: movq $1,%rdx -> movl $1,%edx (immediate can be represented with just 32 bits)
	movl	$1,%edx
	leaq	VMT_$PROCESS_$$_TPROCESS(%rip),%rcx
	leaq	VMT_$PROCESS_$$_TPROCESS(%rip),%rax
	call	*392(%rax)
	movq	U_$P$DISTENCWORKERCLI_$$_JOBS(%rip),%rcx
	movl	TC_$P$DISTENCWORKERCLI_$$_JOBCOUNT(%rip),%edx
	imulq	$152,%rdx,%rdx
	movq	%rax,-64(%rcx,%rdx)
.Ll165:
	movq	U_$P$DISTENCWORKERCLI_$$_JOBS(%rip),%rdx
	movl	TC_$P$DISTENCWORKERCLI_$$_JOBCOUNT(%rip),%eax
	imulq	$152,%rax,%rax
	movq	-64(%rdx,%rax),%rcx
	movl	$12,%edx
	call	PROCESS$_$TPROCESS_$__$$_SETPROCESSOPTIONS$TPROCESSOPTIONS
.Ll166:
	movq	U_$P$DISTENCWORKERCLI_$$_OS(%rip),%rcx
	leaq	.Ld38(%rip),%rdx
	call	fpc_ansistr_compare_equal
	testq	%rax,%rax
	jne	.Lj119
.Ll167:
	movq	U_$P$DISTENCWORKERCLI_$$_JOBS(%rip),%rdx
	movl	TC_$P$DISTENCWORKERCLI_$$_JOBCOUNT(%rip),%eax
	imulq	$152,%rax,%rax
	movq	-64(%rdx,%rax),%rax
	leaq	208(%rax),%rcx
	leaq	.Ld52(%rip),%rdx
	call	fpc_ansistr_assign
.Ll168:
	movq	U_$P$DISTENCWORKERCLI_$$_JOBS(%rip),%rdx
	movl	TC_$P$DISTENCWORKERCLI_$$_JOBCOUNT(%rip),%eax
	imulq	$152,%rax,%rax
	movq	-64(%rdx,%rax),%rax
	movq	216(%rax),%rcx
	leaq	.Ld53(%rip),%rdx
	movq	U_$P$DISTENCWORKERCLI_$$_JOBS(%rip),%r8
	movl	TC_$P$DISTENCWORKERCLI_$$_JOBCOUNT(%rip),%eax
	imulq	$152,%rax,%rax
	movq	-64(%r8,%rax),%rax
	movq	216(%rax),%rax
	movq	(%rax),%rax
	call	*328(%rax)
	jmp	.Lj120
	.p2align 4,,10
	.p2align 3
.Lj119:
.Ll169:
	movq	U_$P$DISTENCWORKERCLI_$$_OS(%rip),%rcx
	leaq	.Ld26(%rip),%rdx
	call	fpc_ansistr_compare_equal
	testq	%rax,%rax
	jne	.Lj120
.Ll170:
	movq	U_$P$DISTENCWORKERCLI_$$_JOBS(%rip),%rdx
	movl	TC_$P$DISTENCWORKERCLI_$$_JOBCOUNT(%rip),%eax
	imulq	$152,%rax,%rax
	movq	-64(%rdx,%rax),%rax
	leaq	208(%rax),%rcx
	leaq	.Ld54(%rip),%rdx
	call	fpc_ansistr_assign
.Ll171:
	movq	U_$P$DISTENCWORKERCLI_$$_JOBS(%rip),%rdx
	movl	TC_$P$DISTENCWORKERCLI_$$_JOBCOUNT(%rip),%eax
	imulq	$152,%rax,%rax
	movq	-64(%rdx,%rax),%rax
	movq	216(%rax),%rcx
	leaq	.Ld55(%rip),%rdx
	movq	U_$P$DISTENCWORKERCLI_$$_JOBS(%rip),%r8
	movl	TC_$P$DISTENCWORKERCLI_$$_JOBCOUNT(%rip),%eax
	imulq	$152,%rax,%rax
	movq	-64(%r8,%rax),%rax
	movq	216(%rax),%rax
	movq	(%rax),%rax
	call	*328(%rax)
.Lj120:
.Ll172:
	movq	-8(%rbp),%rax
	movq	(%rax),%rcx
	movl	$6,%r8d
	leaq	-40(%rbp),%rdx
	movq	-8(%rbp),%rax
	movq	(%rax),%rax
	movq	(%rax),%rax
	call	*240(%rax)
	movq	-40(%rbp),%rdx
	movq	U_$P$DISTENCWORKERCLI_$$_JOBS(%rip),%rcx
	movl	TC_$P$DISTENCWORKERCLI_$$_JOBCOUNT(%rip),%eax
	imulq	$152,%rax,%rax
	movq	-64(%rcx,%rax),%rax
	movq	216(%rax),%rcx
	movq	U_$P$DISTENCWORKERCLI_$$_JOBS(%rip),%r8
	movl	TC_$P$DISTENCWORKERCLI_$$_JOBCOUNT(%rip),%eax
	imulq	$152,%rax,%rax
	movq	-64(%r8,%rax),%rax
	movq	216(%rax),%rax
	movq	(%rax),%rax
	call	*328(%rax)
.Ll173:
	movq	U_$P$DISTENCWORKERCLI_$$_JOBS(%rip),%rdx
	movl	TC_$P$DISTENCWORKERCLI_$$_JOBCOUNT(%rip),%eax
	imulq	$152,%rax,%rax
	movq	-64(%rdx,%rax),%rcx
	movq	U_$P$DISTENCWORKERCLI_$$_JOBS(%rip),%rdx
	movl	TC_$P$DISTENCWORKERCLI_$$_JOBCOUNT(%rip),%eax
	imulq	$152,%rax,%rax
	movq	-64(%rdx,%rax),%rax
	movq	(%rax),%rax
	call	*448(%rax)
.Ll174:
	call	SYSUTILS_$$_NOW$$TDATETIME
	movq	U_$P$DISTENCWORKERCLI_$$_JOBS(%rip),%rdx
	movl	TC_$P$DISTENCWORKERCLI_$$_JOBCOUNT(%rip),%eax
	imulq	$152,%rax,%rax
	movsd	%xmm0,-96(%rdx,%rax)
.Lj115:
.Ll175:
	nop
.Lj114:
	movq	%rbp,%rcx
	call	P$DISTENCWORKERCLI$_$CREATEJOB$TSTRINGLIST_$$_fin$00000061
.Ll176:
	movq	-72(%rbp),%rbx
	leaq	(%rbp),%rsp
	popq	%rbp
	ret
.seh_handler __FPC_specific_handler,@unwind
.seh_handlerdata
	.long	1
	.long	0
	.rva	.Lj113
	.rva	.Lj114
	.rva	P$DISTENCWORKERCLI$_$CREATEJOB$TSTRINGLIST_$$_fin$00000061

.section .text.n_p$distencworkercli_$$_createjob$tstringlist,"ax"
.seh_endproc
.Lc95:
.Lt19:
.Ll177:

.section .text.n_p$distencworkercli_$$_deletejob$longword,"ax"
	.balign 16,0x90
.globl	P$DISTENCWORKERCLI_$$_DELETEJOB$LONGWORD
P$DISTENCWORKERCLI_$$_DELETEJOB$LONGWORD:
.Lc101:
.seh_proc P$DISTENCWORKERCLI_$$_DELETEJOB$LONGWORD
.Ll178:
	pushq	%rbp
.seh_pushreg %rbp
.Lc102:
.Lc103:
	movq	%rsp,%rbp
.Lc104:
	leaq	-48(%rsp),%rsp
.seh_stackalloc 48
.seh_endprologue
	movl	%ecx,-8(%rbp)
# Peephole Optimization: LeaMov2Lea done
.Ll179:
	leaq	INIT_$P$DISTENCWORKERCLI_$$_def00000062(%rip),%r9
	movl	-8(%rbp),%edx
	leaq	U_$P$DISTENCWORKERCLI_$$_JOBS(%rip),%rcx
# Peephole Optimization: movq $1,%r8 -> movl $1,%r8d (immediate can be represented with just 32 bits)
	movl	$1,%r8d
	call	fpc_dynarray_delete
.Ll180:
	subl	$1,TC_$P$DISTENCWORKERCLI_$$_JOBCOUNT(%rip)
.Ll181:
	nop
	leaq	(%rbp),%rsp
	popq	%rbp
	ret
.seh_endproc
.Lc100:
.Lt21:
.Ll182:

.section .text.n_p$distencworkercli$_$stopjob$tstringlist_$$_fin$00000078,"ax"
	.balign 16,0x90
.globl	P$DISTENCWORKERCLI$_$STOPJOB$TSTRINGLIST_$$_fin$00000078
P$DISTENCWORKERCLI$_$STOPJOB$TSTRINGLIST_$$_fin$00000078:
.Lc106:
.seh_proc P$DISTENCWORKERCLI$_$STOPJOB$TSTRINGLIST_$$_fin$00000078
.Ll183:
	pushq	%rbp
.seh_pushreg %rbp
.Lc107:
.Lc108:
	movq	%rcx,%rbp
.Lc109:
	leaq	-32(%rsp),%rsp
.seh_stackalloc 32
.seh_endprologue
.Ll184:
	leaq	-32(%rbp),%rcx
	call	fpc_ansistr_decr_ref
.Ll185:
	nop
	leaq	32(%rsp),%rsp
	popq	%rbp
.Lc110:
	ret
.seh_endproc
.Lc105:
.Lt23:
.Ll186:

.section .text.n_p$distencworkercli_$$_stopjob$tstringlist,"ax"
	.balign 16,0x90
.globl	P$DISTENCWORKERCLI_$$_STOPJOB$TSTRINGLIST
P$DISTENCWORKERCLI_$$_STOPJOB$TSTRINGLIST:
.Lc112:
.seh_proc P$DISTENCWORKERCLI_$$_STOPJOB$TSTRINGLIST
.Ll187:
	pushq	%rbp
.seh_pushreg %rbp
.Lc113:
.Lc114:
	movq	%rsp,%rbp
.Lc115:
	leaq	-80(%rsp),%rsp
.seh_stackalloc 80
	movq	%rbx,-40(%rbp)
.seh_savereg %rbx, 40
.seh_endprologue
	movq	%rcx,-8(%rbp)
.Ll188:
	movq	$0,-32(%rbp)
.Lj133:
	nop
.Lj129:
.Ll189:
	movq	U_$P$DISTENCWORKERCLI_$$_JOBS(%rip),%rcx
	call	fpc_dynarray_high
# Peephole Optimization: MovTest/Cmp/Or/AndJxx2MovTest/Cmp/Or/AndJxx done
	movl	%eax,%ebx
	testl	%eax,%eax
	jnge	.Lj131
	movl	$-1,-20(%rbp)
	.p2align 4,,10
	.p2align 3
.Lj136:
# Peephole Optimization: MovOpMov2Op (movl addl movl)
# Peephole Optimization: Lea2Add done
	addl	$1,-20(%rbp)
.Ll190:
	movl	$1,%r8d
	leaq	-32(%rbp),%rdx
	movq	-8(%rbp),%rcx
	movq	-8(%rbp),%rax
	movq	(%rax),%rax
	call	*240(%rax)
	movq	-32(%rbp),%rdx
	movq	U_$P$DISTENCWORKERCLI_$$_JOBS(%rip),%rcx
	movslq	-20(%rbp),%rax
	imulq	$152,%rax,%rax
	movq	(%rcx,%rax),%rcx
	call	fpc_ansistr_compare_equal
	testq	%rax,%rax
	jne	.Lj140
.Ll191:
	movl	$2,%r8d
	leaq	-32(%rbp),%rdx
	movq	-8(%rbp),%rcx
	movq	-8(%rbp),%rax
	movq	(%rax),%rax
	call	*240(%rax)
	movq	-32(%rbp),%rdx
	movq	U_$P$DISTENCWORKERCLI_$$_JOBS(%rip),%rcx
	movslq	-20(%rbp),%rax
	imulq	$152,%rax,%rax
	movq	8(%rcx,%rax),%rcx
	call	fpc_ansistr_compare_equal
	testq	%rax,%rax
	jne	.Lj140
	movl	-20(%rbp),%ecx
	call	P$DISTENCWORKERCLI_$$_DELETEJOB$LONGWORD
	jmp	.Lj131
.Lj140:
.Ll192:
	cmpl	-20(%rbp),%ebx
	jnle	.Lj136
.Lj131:
.Ll193:
	nop
.Lj130:
	movq	%rbp,%rcx
	call	P$DISTENCWORKERCLI$_$STOPJOB$TSTRINGLIST_$$_fin$00000078
.Ll194:
	movq	-40(%rbp),%rbx
	leaq	(%rbp),%rsp
	popq	%rbp
	ret
.seh_handler __FPC_specific_handler,@unwind
.seh_handlerdata
	.long	1
	.long	0
	.rva	.Lj129
	.rva	.Lj130
	.rva	P$DISTENCWORKERCLI$_$STOPJOB$TSTRINGLIST_$$_fin$00000078

.section .text.n_p$distencworkercli_$$_stopjob$tstringlist,"ax"
.seh_endproc
.Lc111:
.Lt22:
.Ll195:

.section .text.n_p$distencworkercli$_$processmessage$ansistring_$$_fin$0000007a,"ax"
	.balign 16,0x90
.globl	P$DISTENCWORKERCLI$_$PROCESSMESSAGE$ANSISTRING_$$_fin$0000007A
P$DISTENCWORKERCLI$_$PROCESSMESSAGE$ANSISTRING_$$_fin$0000007A:
.Lc117:
.seh_proc P$DISTENCWORKERCLI$_$PROCESSMESSAGE$ANSISTRING_$$_fin$0000007A
.Ll196:
	pushq	%rbp
.seh_pushreg %rbp
.Lc118:
.Lc119:
	movq	%rcx,%rbp
.Lc120:
	leaq	-32(%rsp),%rsp
.seh_stackalloc 32
.seh_endprologue
.Ll197:
	leaq	-32(%rbp),%rcx
	call	fpc_ansistr_decr_ref
.Ll198:
	nop
	leaq	32(%rsp),%rsp
	popq	%rbp
.Lc121:
	ret
.seh_endproc
.Lc116:
.Lt25:
.Ll199:

.section .text.n_p$distencworkercli_$$_processmessage$ansistring,"ax"
	.balign 16,0x90
.globl	P$DISTENCWORKERCLI_$$_PROCESSMESSAGE$ANSISTRING
P$DISTENCWORKERCLI_$$_PROCESSMESSAGE$ANSISTRING:
.Lc123:
.seh_proc P$DISTENCWORKERCLI_$$_PROCESSMESSAGE$ANSISTRING
.Ll200:
	pushq	%rbp
.seh_pushreg %rbp
.Lc124:
.Lc125:
	movq	%rsp,%rbp
.Lc126:
	leaq	-64(%rsp),%rsp
.seh_stackalloc 64
.seh_endprologue
	movq	%rcx,-8(%rbp)
.Ll201:
	movq	$0,-32(%rbp)
.Lj151:
	nop
.Lj147:
# Peephole Optimization: movq $1,%rax -> movl $1,%eax (immediate can be represented with just 32 bits)
.Ll202:
	movl	$1,%eax
	leaq	VMT_$CLASSES_$$_TSTRINGLIST(%rip),%rcx
	movq	%rax,%rdx
	call	CLASSES$_$TSTRINGS_$__$$_CREATE$$TSTRINGS
	movq	%rax,-24(%rbp)
.Ll203:
	movzbl	TC_$P$DISTENCWORKERCLI_$$_DC(%rip),%edx
	movq	-24(%rbp),%rcx
	call	CLASSES$_$TSTRINGS_$__$$_SETDELIMITER$CHAR
	movq	-24(%rbp),%rax
	movb	$1,69(%rax)
.Ll204:
	movq	-8(%rbp),%rdx
	movq	-24(%rbp),%rcx
	call	CLASSES$_$TSTRINGS_$__$$_SETDELIMITEDTEXT$ANSISTRING
	.p2align 4,,10
	.p2align 3
.Lj152:
# Peephole Optimization: movq $1,%rdx -> movl $1,%edx (immediate can be represented with just 32 bits)
.Ll205:
	movl	$1,%edx
	leaq	VMT_$CLASSES_$$_TSTRINGLIST(%rip),%rcx
	call	CLASSES$_$TSTRINGS_$__$$_CREATE$$TSTRINGS
	movq	%rax,-16(%rbp)
	.p2align 4,,10
	.p2align 3
.Lj155:
.Ll206:
	xorl	%r8d,%r8d
	leaq	-32(%rbp),%rdx
	movq	-24(%rbp),%rcx
	movq	-24(%rbp),%rax
	movq	(%rax),%rax
	call	*240(%rax)
	movq	-32(%rbp),%rdx
	movq	-16(%rbp),%rcx
	movq	-16(%rbp),%rax
	movq	(%rax),%rax
	call	*328(%rax)
.Ll207:
	xorl	%edx,%edx
	movq	-24(%rbp),%rcx
	movq	-24(%rbp),%rax
	movq	(%rax),%rax
	call	*376(%rax)
.Ll208:
	movq	-24(%rbp),%rcx
	movq	-24(%rbp),%rax
	movq	(%rax),%rax
	call	*256(%rax)
	testl	%eax,%eax
	je	.Lj157
.Ll209:
	xorl	%r8d,%r8d
	leaq	-32(%rbp),%rdx
	movq	-24(%rbp),%rcx
	movq	-24(%rbp),%rax
	movq	(%rax),%rax
	call	*240(%rax)
	movq	-32(%rbp),%rcx
	leaq	.Ld56(%rip),%rdx
	call	fpc_ansistr_compare_equal
	testq	%rax,%rax
	je	.Lj157
	xorl	%r8d,%r8d
	leaq	-32(%rbp),%rdx
	movq	-24(%rbp),%rcx
	movq	-24(%rbp),%rax
	movq	(%rax),%rax
	call	*240(%rax)
	movq	-32(%rbp),%rcx
	leaq	.Ld57(%rip),%rdx
	call	fpc_ansistr_compare_equal
	testq	%rax,%rax
	jne	.Lj155
.Lj157:
.Ll210:
	movq	-16(%rbp),%rcx
	xorl	%r8d,%r8d
	leaq	-32(%rbp),%rdx
	movq	-16(%rbp),%rax
	movq	(%rax),%rax
	call	*240(%rax)
	movq	-32(%rbp),%rcx
	leaq	.Ld56(%rip),%rdx
	call	fpc_ansistr_compare_equal
	testq	%rax,%rax
	jne	.Lj165
	movq	-16(%rbp),%rcx
	call	P$DISTENCWORKERCLI_$$_STOPJOB$TSTRINGLIST
.Lj165:
.Ll211:
	movq	-16(%rbp),%rcx
	xorl	%r8d,%r8d
	leaq	-32(%rbp),%rdx
	movq	-16(%rbp),%rax
	movq	(%rax),%rax
	call	*240(%rax)
	movq	-32(%rbp),%rcx
	leaq	.Ld57(%rip),%rdx
	call	fpc_ansistr_compare_equal
	testq	%rax,%rax
	jne	.Lj167
	leaq	-16(%rbp),%rcx
	call	P$DISTENCWORKERCLI_$$_CREATEJOB$TSTRINGLIST
.Lj167:
.Ll212:
	movq	-16(%rbp),%rcx
	call	SYSTEM$_$TOBJECT_$__$$_FREE
.Ll213:
	movq	-24(%rbp),%rcx
	movq	-24(%rbp),%rax
	movq	(%rax),%rax
	call	*256(%rax)
	testl	%eax,%eax
	jne	.Lj152
.Ll214:
	movq	-24(%rbp),%rcx
	call	SYSTEM$_$TOBJECT_$__$$_FREE
.Lj149:
.Ll215:
	nop
.Lj148:
	movq	%rbp,%rcx
	call	P$DISTENCWORKERCLI$_$PROCESSMESSAGE$ANSISTRING_$$_fin$0000007A
.Ll216:
	nop
	leaq	(%rbp),%rsp
	popq	%rbp
	ret
.seh_handler __FPC_specific_handler,@unwind
.seh_handlerdata
	.long	1
	.long	0
	.rva	.Lj147
	.rva	.Lj148
	.rva	P$DISTENCWORKERCLI$_$PROCESSMESSAGE$ANSISTRING_$$_fin$0000007A

.section .text.n_p$distencworkercli_$$_processmessage$ansistring,"ax"
.seh_endproc
.Lc122:
.Lt24:
.Ll217:

.section .text.n_p$distencworkercli$_$tltcptest_$_onre$tlsocket_$$_fin$00000082,"ax"
	.balign 16,0x90
.globl	P$DISTENCWORKERCLI$_$TLTCPTEST_$_ONRE$TLSOCKET_$$_fin$00000082
P$DISTENCWORKERCLI$_$TLTCPTEST_$_ONRE$TLSOCKET_$$_fin$00000082:
.Lc128:
.seh_proc P$DISTENCWORKERCLI$_$TLTCPTEST_$_ONRE$TLSOCKET_$$_fin$00000082
.Ll218:
	pushq	%rbp
.seh_pushreg %rbp
.Lc129:
.Lc130:
	movq	%rcx,%rbp
.Lc131:
	leaq	-32(%rsp),%rsp
.seh_stackalloc 32
.seh_endprologue
# Peephole Optimization: LeaMov2Lea done
.Ll219:
	leaq	-24(%rbp),%rcx
	call	fpc_ansistr_decr_ref
.Ll220:
	nop
	leaq	32(%rsp),%rsp
	popq	%rbp
.Lc132:
	ret
.seh_endproc
.Lc127:
.Lt2:
.Ll221:

.section .text.n_p$distencworkercli$_$tltcptest_$__$$_onre$tlsocket,"ax"
	.balign 16,0x90
.globl	P$DISTENCWORKERCLI$_$TLTCPTEST_$__$$_ONRE$TLSOCKET
P$DISTENCWORKERCLI$_$TLTCPTEST_$__$$_ONRE$TLSOCKET:
.Lc134:
.seh_proc P$DISTENCWORKERCLI$_$TLTCPTEST_$__$$_ONRE$TLSOCKET
.Ll222:
	pushq	%rbp
.seh_pushreg %rbp
.Lc135:
.Lc136:
	movq	%rsp,%rbp
.Lc137:
	leaq	-80(%rsp),%rsp
.seh_stackalloc 80
	movq	%rbx,-40(%rbp)
.seh_savereg %rbx, 40
.seh_endprologue
	movq	%rcx,-16(%rbp)
	movq	%rdx,-8(%rbp)
.Ll223:
	movq	$0,-24(%rbp)
.Lj176:
	nop
.Lj172:
# Peephole Optimization: LeaMov2Lea done
.Ll224:
	leaq	-24(%rbp),%rbx
	movq	%rbx,%rcx
	call	fpc_ansistr_decr_ref
	movq	%rbx,%rdx
	movq	-8(%rbp),%rcx
	call	LNET$_$TLSOCKET_$__$$_GETMESSAGE$ANSISTRING$$LONGINT
	testl	%eax,%eax
	jng	.Lj174
.Ll225:
	call	fpc_get_output
	movq	%rax,%rbx
	movq	-24(%rbp),%r8
	movq	%rbx,%rdx
	xorl	%ecx,%ecx
	call	fpc_write_text_ansistr
	call	fpc_iocheck
	movq	%rbx,%rcx
	call	fpc_writeln_end
	call	fpc_iocheck
.Ll226:
	movq	-24(%rbp),%rcx
	call	P$DISTENCWORKERCLI_$$_PROCESSMESSAGE$ANSISTRING
.Lj174:
.Ll227:
	nop
.Lj173:
	movq	%rbp,%rcx
	call	P$DISTENCWORKERCLI$_$TLTCPTEST_$_ONRE$TLSOCKET_$$_fin$00000082
.Ll228:
	movq	-40(%rbp),%rbx
	leaq	(%rbp),%rsp
	popq	%rbp
	ret
.seh_handler __FPC_specific_handler,@unwind
.seh_handlerdata
	.long	1
	.long	0
	.rva	.Lj172
	.rva	.Lj173
	.rva	P$DISTENCWORKERCLI$_$TLTCPTEST_$_ONRE$TLSOCKET_$$_fin$00000082

.section .text.n_p$distencworkercli$_$tltcptest_$__$$_onre$tlsocket,"ax"
.seh_endproc
.Lc133:
.Lt48:
.Ll229:

.section .text.n_p$distencworkercli$_$tltcptest_$__$$_oner$ansistring$tlsocket,"ax"
	.balign 16,0x90
.globl	P$DISTENCWORKERCLI$_$TLTCPTEST_$__$$_ONER$ANSISTRING$TLSOCKET
P$DISTENCWORKERCLI$_$TLTCPTEST_$__$$_ONER$ANSISTRING$TLSOCKET:
.Lc139:
.seh_proc P$DISTENCWORKERCLI$_$TLTCPTEST_$__$$_ONER$ANSISTRING$TLSOCKET
.Ll230:
	pushq	%rbp
.seh_pushreg %rbp
.Lc140:
.Lc141:
	movq	%rsp,%rbp
.Lc142:
	leaq	-64(%rsp),%rsp
.seh_stackalloc 64
	movq	%rbx,-32(%rbp)
.seh_savereg %rbx, 32
.seh_endprologue
	movq	%rcx,-24(%rbp)
	movq	%rdx,-8(%rbp)
	movq	%r8,-16(%rbp)
.Ll231:
	call	fpc_get_output
	movq	%rax,%rbx
	movq	-8(%rbp),%r8
	movq	%rbx,%rdx
	xorl	%ecx,%ecx
	call	fpc_write_text_ansistr
	call	fpc_iocheck
	movq	%rbx,%rcx
	call	fpc_writeln_end
	call	fpc_iocheck
.Ll232:
	movq	-24(%rbp),%rax
	movb	$1,8(%rax)
.Ll233:
	movq	-32(%rbp),%rbx
	leaq	(%rbp),%rsp
	popq	%rbp
	ret
.seh_endproc
.Lc138:
.Lt49:
.Ll234:

.section .text.n_p$distencworkercli$_$tltcptest_$__$$_create$$tltcptest,"ax"
	.balign 16,0x90
.globl	P$DISTENCWORKERCLI$_$TLTCPTEST_$__$$_CREATE$$TLTCPTEST
P$DISTENCWORKERCLI$_$TLTCPTEST_$__$$_CREATE$$TLTCPTEST:
.Lc144:
.seh_proc P$DISTENCWORKERCLI$_$TLTCPTEST_$__$$_CREATE$$TLTCPTEST
.Ll235:
	pushq	%rbp
.seh_pushreg %rbp
.Lc145:
.Lc146:
	movq	%rsp,%rbp
.Lc147:
	leaq	-64(%rsp),%rsp
.seh_stackalloc 64
.seh_endprologue
	movq	%rcx,-16(%rbp)
	movq	%rdx,-8(%rbp)
# Peephole Optimization: MovTestCmp2MovTestCmp 1
.Ll236:
	cmpq	$1,%rdx
	jne	.Lj184
	movq	-16(%rbp),%rax
	movq	-16(%rbp),%rdx
	movq	%rax,%rcx
	call	*104(%rdx)
	movq	%rax,-16(%rbp)
.Lj184:
	cmpq	$0,-16(%rbp)
	je	.Lj181
.Lj192:
	nop
.Lj191:
	movq	$-1,-24(%rbp)
.Ll237:
	xorq	%r8,%r8
# Peephole Optimization: movq $1,%rdx -> movl $1,%edx (immediate can be represented with just 32 bits)
	movl	$1,%edx
	leaq	VMT_$LNET_$$_TLTCP(%rip),%rcx
	leaq	VMT_$LNET_$$_TLTCP(%rip),%rax
	call	*392(%rax)
	movq	-16(%rbp),%rdx
	movq	%rax,16(%rdx)
.Ll238:
	movq	-16(%rbp),%rax
	movq	16(%rax),%rax
	movq	-16(%rbp),%rcx
	leaq	P$DISTENCWORKERCLI$_$TLTCPTEST_$__$$_ONER$ANSISTRING$TLSOCKET(%rip),%rdx
	movq	%rdx,232(%rax)
	movq	%rcx,240(%rax)
.Ll239:
	movq	-16(%rbp),%rax
	movq	16(%rax),%rax
	movq	-16(%rbp),%rcx
	leaq	P$DISTENCWORKERCLI$_$TLTCPTEST_$__$$_ONRE$TLSOCKET(%rip),%rdx
	movq	%rdx,152(%rax)
	movq	%rcx,160(%rax)
.Ll240:
	movq	-16(%rbp),%rax
	movq	16(%rax),%rax
	movq	-16(%rbp),%rcx
	leaq	P$DISTENCWORKERCLI$_$TLTCPTEST_$__$$_ONDS$TLSOCKET(%rip),%rdx
	movq	%rdx,200(%rax)
	movq	%rcx,208(%rax)
.Ll241:
	movq	-16(%rbp),%rax
	movq	16(%rax),%rcx
	movl	$150,%edx
	call	LNET$_$TLCONNECTION_$__$$_SETTIMEOUT$LONGINT
.Ll242:
	movq	$1,-24(%rbp)
	cmpq	$0,-16(%rbp)
	je	.Lj181
	cmpq	$0,-8(%rbp)
	je	.Lj181
	movq	-16(%rbp),%rcx
	movq	-16(%rbp),%rax
	movq	(%rax),%rax
	call	*136(%rax)
.Ll243:
	jmp	.Lj181
.Lj188:
.Ll244:
	cmpq	$0,-8(%rbp)
	je	.Lj198
	movq	-24(%rbp),%rdx
	movq	-16(%rbp),%rcx
	movq	-16(%rbp),%rax
	movq	(%rax),%rax
	call	*96(%rax)
.Lj198:
	call	fpc_reraise
.Ll245:
	call	FPC_DONEEXCEPTION
.Lj199:
	nop
.Lj189:
.Lj181:
.Ll246:
	movq	-16(%rbp),%rax
	nop
	leaq	(%rbp),%rsp
	popq	%rbp
	ret
.seh_handler __FPC_specific_handler,@except,@unwind
.seh_handlerdata
	.long	1
	.long	1
	.rva	.Lj191
	.rva	.Lj188
	.rva	.Lj189

.section .text.n_p$distencworkercli$_$tltcptest_$__$$_create$$tltcptest,"ax"
.seh_endproc
.Lc143:
.Lt50:
.Ll247:

.section .text.n_p$distencworkercli$_$tltcptest_$__$$_destroy,"ax"
	.balign 16,0x90
.globl	P$DISTENCWORKERCLI$_$TLTCPTEST_$__$$_DESTROY
P$DISTENCWORKERCLI$_$TLTCPTEST_$__$$_DESTROY:
.Lc149:
.seh_proc P$DISTENCWORKERCLI$_$TLTCPTEST_$__$$_DESTROY
.Ll248:
	pushq	%rbp
.seh_pushreg %rbp
.Lc150:
.Lc151:
	movq	%rsp,%rbp
.Lc152:
	leaq	-48(%rsp),%rsp
.seh_stackalloc 48
.seh_endprologue
	movq	%rcx,-16(%rbp)
	movq	%rdx,-8(%rbp)
# Peephole Optimization: MovTestCmp2MovTestCmp 1
.Ll249:
	testq	%rdx,%rdx
	jng	.Lj203
	movq	-16(%rbp),%rax
	movq	-16(%rbp),%rdx
	movq	(%rdx),%rdx
	movq	%rax,%rcx
	call	*144(%rdx)
.Lj203:
.Ll250:
	movq	-16(%rbp),%rax
	movq	16(%rax),%rcx
	call	SYSTEM$_$TOBJECT_$__$$_FREE
# Peephole Optimization: xorq %rdx,%rdx -> xorl %edx,%edx (removes REX prefix)
.Ll251:
	xorl	%edx,%edx
	movq	-16(%rbp),%rcx
	call	SYSTEM$_$TOBJECT_$__$$_DESTROY
.Ll252:
	cmpq	$0,-16(%rbp)
	je	.Lj205
	cmpq	$0,-8(%rbp)
	je	.Lj205
	movq	-16(%rbp),%rcx
	movq	-16(%rbp),%rax
	movq	(%rax),%rax
	call	*112(%rax)
.Lj205:
	nop
	leaq	(%rbp),%rsp
	popq	%rbp
	ret
.seh_endproc
.Lc148:
.Lt51:
.Ll253:

.section .text.n_p$distencworkercli_$$_readprocoutput$tprocess$tstringlist,"ax"
	.balign 16,0x90
.globl	P$DISTENCWORKERCLI_$$_READPROCOUTPUT$TPROCESS$TSTRINGLIST
P$DISTENCWORKERCLI_$$_READPROCOUTPUT$TPROCESS$TSTRINGLIST:
.Lc154:
.seh_proc P$DISTENCWORKERCLI_$$_READPROCOUTPUT$TPROCESS$TSTRINGLIST
.Ll254:
	pushq	%rbp
.seh_pushreg %rbp
.Lc155:
.Lc156:
	movq	%rsp,%rbp
.Lc157:
	leaq	-2112(%rsp),%rsp
.seh_stackalloc 2112
.seh_endprologue
	movq	%rcx,-8(%rbp)
	movq	%rdx,-16(%rbp)
# Peephole Optimization: movq $1,%rax -> movl $1,%eax (immediate can be represented with just 32 bits)
.Ll255:
	movl	$1,%eax
	leaq	VMT_$CLASSES_$$_TMEMORYSTREAM(%rip),%rcx
	movq	%rax,%rdx
	call	SYSTEM$_$TOBJECT_$__$$_CREATE$$TOBJECT
	movq	%rax,-24(%rbp)
# Peephole Optimization: xorq %rdx,%rdx -> xorl %edx,%edx (removes REX prefix)
.Ll256:
	xorl	%edx,%edx
	movq	-24(%rbp),%rcx
	movq	-24(%rbp),%rax
	movq	(%rax),%rax
	call	*216(%rax)
.Ll257:
	jmp	.Lj210
	.p2align 4,,10
	.p2align 3
.Lj209:
.Ll258:
	movq	-8(%rbp),%rax
	movq	(%rax),%rax
	movq	296(%rax),%rcx
	leaq	-2076(%rbp),%rdx
	movl	$2048,%r8d
	movq	-8(%rbp),%rax
	movq	(%rax),%rax
	movq	296(%rax),%rax
	movq	(%rax),%rax
	call	*256(%rax)
	movl	%eax,-28(%rbp)
.Ll259:
	leaq	-2076(%rbp),%rdx
	movl	-28(%rbp),%r8d
	movq	-24(%rbp),%rcx
	movq	-24(%rbp),%rax
	movq	(%rax),%rax
	call	*264(%rax)
.Lj210:
.Ll260:
	movq	-8(%rbp),%rax
	movq	(%rax),%rax
	movq	296(%rax),%rcx
	call	PIPES$_$TINPUTPIPESTREAM_$__$$_GETNUMBYTESAVAILABLE$$LONGWORD
	movl	%eax,-2080(%rbp)
# Peephole Optimization: MovTestCmp2MovTestCmp 1
	testl	%eax,%eax
# Peephole Optimization: SETcc/TESTCmp/Jcc -> Jcc
	jne	.Lj209
# Peephole Optimization: xorq %rdx,%rdx -> xorl %edx,%edx (removes REX prefix)
.Ll261:
	xorl	%edx,%edx
	movq	-24(%rbp),%rcx
	movq	-24(%rbp),%rax
	movq	(%rax),%rax
	call	*216(%rax)
.Ll262:
	movq	-16(%rbp),%rax
.Ll263:
	movq	(%rax),%rcx
	movq	-24(%rbp),%rdx
.Ll264:
	movq	-16(%rbp),%rax
.Ll265:
	movq	(%rax),%rax
	movq	(%rax),%rax
	call	*464(%rax)
.Ll266:
	movq	-24(%rbp),%rcx
	call	SYSTEM$_$TOBJECT_$__$$_FREE
.Ll267:
	nop
	leaq	(%rbp),%rsp
	popq	%rbp
	ret
.seh_endproc
.Lc153:
.Lt26:
.Ll268:

.section .text.n_p$distencworkercli$_$generateprogress$longword$tstringlist_$$_fin$00000086,"ax"
	.balign 16,0x90
.globl	P$DISTENCWORKERCLI$_$GENERATEPROGRESS$LONGWORD$TSTRINGLIST_$$_fin$00000086
P$DISTENCWORKERCLI$_$GENERATEPROGRESS$LONGWORD$TSTRINGLIST_$$_fin$00000086:
.Lc159:
.seh_proc P$DISTENCWORKERCLI$_$GENERATEPROGRESS$LONGWORD$TSTRINGLIST_$$_fin$00000086
.Ll269:
	pushq	%rbp
.seh_pushreg %rbp
.Lc160:
.Lc161:
	movq	%rcx,%rbp
.Lc162:
	leaq	-32(%rsp),%rsp
.seh_stackalloc 32
.seh_endprologue
.Ll270:
	leaq	-40(%rbp),%rcx
	call	fpc_ansistr_decr_ref
	leaq	-32(%rbp),%rcx
	call	fpc_ansistr_decr_ref
# Peephole Optimization: LeaMov2Lea done
	leaq	-24(%rbp),%rcx
	call	fpc_ansistr_decr_ref
.Ll271:
	nop
	leaq	32(%rsp),%rsp
	popq	%rbp
.Lc163:
	ret
.seh_endproc
.Lc158:
.Lt28:
.Ll272:

.section .text.n_p$distencworkercli_$$_generateprogress$longword$tstringlist,"ax"
	.balign 16,0x90
.globl	P$DISTENCWORKERCLI_$$_GENERATEPROGRESS$LONGWORD$TSTRINGLIST
P$DISTENCWORKERCLI_$$_GENERATEPROGRESS$LONGWORD$TSTRINGLIST:
.Lc165:
.seh_proc P$DISTENCWORKERCLI_$$_GENERATEPROGRESS$LONGWORD$TSTRINGLIST
.Ll273:
	pushq	%rbp
.seh_pushreg %rbp
.Lc166:
.Lc167:
	movq	%rsp,%rbp
.Lc168:
	leaq	-112(%rsp),%rsp
.seh_stackalloc 112
	movq	%rbx,-80(%rbp)
	movdqa	%xmm6,-48(%rbp)
.seh_savereg %rbx, 32
.seh_savexmm %xmm6, 64
.seh_endprologue
	movl	%ecx,-8(%rbp)
	movq	%rdx,-16(%rbp)
.Ll274:
	movq	$0,-24(%rbp)
	movq	$0,-40(%rbp)
	movq	$0,-32(%rbp)
.Lj220:
	nop
.Lj216:
.Ll275:
	call	fpc_get_output
	movq	%rax,%rbx
	leaq	_$DISTENCWORKERCLI$_Ld58(%rip),%r8
	movq	%rbx,%rdx
	xorl	%ecx,%ecx
	call	fpc_write_text_shortstr
	call	fpc_iocheck
	movq	%rbx,%rcx
	call	fpc_writeln_end
	call	fpc_iocheck
.Ll276:
	call	fpc_get_output
	movq	%rax,%rbx
	leaq	-32(%rbp),%rdx
	movq	-16(%rbp),%rcx
	movq	-16(%rbp),%rax
	movq	(%rax),%rax
	call	*272(%rax)
	movq	-32(%rbp),%r8
	movq	%rbx,%rdx
	xorl	%ecx,%ecx
	call	fpc_write_text_ansistr
	call	fpc_iocheck
	movq	%rbx,%rcx
	call	fpc_writeln_end
	call	fpc_iocheck
.Ll277:
	leaq	-32(%rbp),%rdx
	movq	-16(%rbp),%rcx
	movq	-16(%rbp),%rax
	movq	(%rax),%rax
	call	*272(%rax)
	movq	-32(%rbp),%rdx
# Peephole Optimization: movq $1,%r8 -> movl $1,%r8d (immediate can be represented with just 32 bits)
	movl	$1,%r8d
	leaq	.Ld59(%rip),%rcx
	call	SYSTEM_$$_POS$RAWBYTESTRING$RAWBYTESTRING$INT64$$INT64
	testq	%rax,%rax
	jng	.Lj218
.Ll278:
	leaq	-32(%rbp),%rdx
	movq	-16(%rbp),%rcx
	movq	-16(%rbp),%rax
	movq	(%rax),%rax
	call	*272(%rax)
	movq	-32(%rbp),%rdx
# Peephole Optimization: movq $1,%r8 -> movl $1,%r8d (immediate can be represented with just 32 bits)
	movl	$1,%r8d
	leaq	.Ld59(%rip),%rcx
	call	SYSTEM_$$_POS$RAWBYTESTRING$RAWBYTESTRING$INT64$$INT64
	leaq	6(%rax),%rbx
	leaq	-40(%rbp),%rdx
	movq	-16(%rbp),%rcx
	movq	-16(%rbp),%rax
	movq	(%rax),%rax
	call	*272(%rax)
	movq	-40(%rbp),%rdx
	leaq	-24(%rbp),%rcx
# Peephole Optimization: movq $6,%r9 -> movl $6,%r9d (immediate can be represented with just 32 bits)
	movl	$6,%r9d
	movq	%rbx,%r8
	call	fpc_ansistr_copy
.Ll279:
	movq	-24(%rbp),%rdx
	leaq	-40(%rbp),%rcx
	call	SYSUTILS_$$_TRIM$ANSISTRING$$ANSISTRING
	movq	-40(%rbp),%rdx
	leaq	-24(%rbp),%rcx
	call	fpc_ansistr_assign
.Ll280:
	cmpq	$0,-24(%rbp)
	je	.Lj218
	movq	-24(%rbp),%rcx
	call	SYSUTILS_$$_STRTOINT$ANSISTRING$$LONGINT
	cvtsi2sdl	%eax,%xmm6
	movq	U_$P$DISTENCWORKERCLI_$$_JOBS(%rip),%rdx
	movl	-8(%rbp),%eax
	imulq	$152,%rax,%rax
	movq	128(%rdx,%rax),%rcx
	call	SYSUTILS_$$_STRTOINT$ANSISTRING$$LONGINT
	cvtsi2sdl	%eax,%xmm0
	divsd	%xmm0,%xmm6
	mulsd	_$DISTENCWORKERCLI$_Ld60(%rip),%xmm6
	cvttsd2si	%xmm6,%rax
	movq	U_$P$DISTENCWORKERCLI_$$_JOBS(%rip),%rcx
	movl	-8(%rbp),%edx
	imulq	$152,%rdx,%rdx
	movl	%eax,140(%rcx,%rdx)
.Lj218:
.Ll281:
	nop
.Lj217:
	movq	%rbp,%rcx
	call	P$DISTENCWORKERCLI$_$GENERATEPROGRESS$LONGWORD$TSTRINGLIST_$$_fin$00000086
.Ll282:
	movq	-80(%rbp),%rbx
	movdqa	-48(%rbp),%xmm6
	leaq	(%rbp),%rsp
	popq	%rbp
	ret
.seh_handler __FPC_specific_handler,@unwind
.seh_handlerdata
	.long	1
	.long	0
	.rva	.Lj216
	.rva	.Lj217
	.rva	P$DISTENCWORKERCLI$_$GENERATEPROGRESS$LONGWORD$TSTRINGLIST_$$_fin$00000086

.section .text.n_p$distencworkercli_$$_generateprogress$longword$tstringlist,"ax"
.seh_endproc
.Lc164:
.Lt27:
.Ll283:

.section .text.n_p$distencworkercli$_$sendprogress$tjob_$$_fin$0000008c,"ax"
	.balign 16,0x90
.globl	P$DISTENCWORKERCLI$_$SENDPROGRESS$TJOB_$$_fin$0000008C
P$DISTENCWORKERCLI$_$SENDPROGRESS$TJOB_$$_fin$0000008C:
.Lc170:
.seh_proc P$DISTENCWORKERCLI$_$SENDPROGRESS$TJOB_$$_fin$0000008C
.Ll284:
	pushq	%rbp
.seh_pushreg %rbp
.Lc171:
.Lc172:
	movq	%rcx,%rbp
.Lc173:
	leaq	-32(%rsp),%rsp
.seh_stackalloc 32
.seh_endprologue
.Ll285:
	leaq	-432(%rbp),%rcx
	call	fpc_ansistr_decr_ref
	leaq	-424(%rbp),%rcx
	call	fpc_ansistr_decr_ref
	leaq	-152(%rbp),%rcx
	call	fpc_ansistr_decr_ref
	leaq	-144(%rbp),%rcx
	call	fpc_ansistr_decr_ref
	leaq	-136(%rbp),%rcx
	call	fpc_ansistr_decr_ref
	leaq	-128(%rbp),%rcx
	call	fpc_ansistr_decr_ref
	leaq	-120(%rbp),%rcx
	call	fpc_ansistr_decr_ref
	leaq	-16(%rbp),%rcx
	call	fpc_ansistr_decr_ref
.Ll286:
	nop
	leaq	32(%rsp),%rsp
	popq	%rbp
.Lc174:
	ret
.seh_endproc
.Lc169:
.Lt30:
.Ll287:

.section .text.n_p$distencworkercli_$$_sendprogress$tjob,"ax"
	.balign 16,0x90
.globl	P$DISTENCWORKERCLI_$$_SENDPROGRESS$TJOB
P$DISTENCWORKERCLI_$$_SENDPROGRESS$TJOB:
.Lc176:
.seh_proc P$DISTENCWORKERCLI_$$_SENDPROGRESS$TJOB
.Ll288:
	pushq	%rbp
.seh_pushreg %rbp
.Lc177:
.Lc178:
	movq	%rsp,%rbp
.Lc179:
	leaq	-480(%rsp),%rsp
.seh_stackalloc 480
	movq	%rbx,-440(%rbp)
.seh_savereg %rbx, 40
.seh_endprologue
	movq	%rcx,-8(%rbp)
.Ll289:
	movq	$0,-432(%rbp)
	movq	$0,-424(%rbp)
	movq	$0,-152(%rbp)
	movq	$0,-144(%rbp)
	movq	$0,-136(%rbp)
	movq	$0,-128(%rbp)
	movq	$0,-120(%rbp)
	movq	$0,-16(%rbp)
.Lj233:
	nop
.Lj229:
.Ll290:
	leaq	-16(%rbp),%rcx
	call	fpc_ansistr_decr_ref
	leaq	.Ld61(%rip),%rax
	movq	%rax,-112(%rbp)
	movzbl	TC_$P$DISTENCWORKERCLI_$$_DC(%rip),%edx
	xorl	%r8d,%r8d
	leaq	-120(%rbp),%rcx
	call	fpc_char_to_ansistr
	movq	-120(%rbp),%rax
	movq	%rax,-104(%rbp)
	movq	-8(%rbp),%rax
	movq	(%rax),%rax
	movq	%rax,-96(%rbp)
	movzbl	TC_$P$DISTENCWORKERCLI_$$_DC(%rip),%edx
	xorl	%r8d,%r8d
	leaq	-128(%rbp),%rcx
	call	fpc_char_to_ansistr
	movq	-128(%rbp),%rax
	movq	%rax,-88(%rbp)
	movq	-8(%rbp),%rax
	movq	8(%rax),%rax
	movq	%rax,-80(%rbp)
	movzbl	TC_$P$DISTENCWORKERCLI_$$_DC(%rip),%edx
	xorl	%r8d,%r8d
	leaq	-136(%rbp),%rcx
	call	fpc_char_to_ansistr
	movq	-136(%rbp),%rax
	movq	%rax,-72(%rbp)
	movq	-8(%rbp),%rax
	movq	48(%rax),%rax
	movq	%rax,-64(%rbp)
	movzbl	TC_$P$DISTENCWORKERCLI_$$_DC(%rip),%edx
	xorl	%r8d,%r8d
	leaq	-144(%rbp),%rcx
	call	fpc_char_to_ansistr
	movq	-144(%rbp),%rax
	movq	%rax,-56(%rbp)
	leaq	-152(%rbp),%rcx
	call	fpc_ansistr_decr_ref
	movq	-8(%rbp),%rax
	leaq	140(%rax),%rbx
	movslq	(%rbx),%rax
	movq	%rax,-160(%rbp)
# Peephole Optimization: movq $255,%r9 -> movl $255,%r9d (immediate can be represented with just 32 bits)
	movl	$255,%r9d
	leaq	-416(%rbp),%r8
	movq	$-1,%rdx
	movq	-160(%rbp),%rcx
	call	fpc_shortstr_sint
	xorl	%r8d,%r8d
	leaq	-416(%rbp),%rdx
	leaq	-152(%rbp),%rcx
	call	fpc_shortstr_to_ansistr
	xorb	%r8b,%r8b
	xorl	%edx,%edx
	leaq	-152(%rbp),%rcx
	call	SYSTEM_$$_SETCODEPAGE$RAWBYTESTRING$WORD$BOOLEAN
	movq	-152(%rbp),%rax
	movq	%rax,-48(%rbp)
	movzbl	TC_$P$DISTENCWORKERCLI_$$_DC(%rip),%edx
	xorl	%r8d,%r8d
	leaq	-424(%rbp),%rcx
	call	fpc_char_to_ansistr
	movq	-424(%rbp),%rax
	movq	%rax,-40(%rbp)
	movq	-8(%rbp),%rax
	movq	112(%rax),%rax
	movq	%rax,-32(%rbp)
	movzbl	TC_$P$DISTENCWORKERCLI_$$_DC(%rip),%edx
	xorl	%r8d,%r8d
	leaq	-432(%rbp),%rcx
	call	fpc_char_to_ansistr
	movq	-432(%rbp),%rax
	movq	%rax,-24(%rbp)
	leaq	-112(%rbp),%rdx
	xorl	%r9d,%r9d
# Peephole Optimization: movq $11,%r8 -> movl $11,%r8d (immediate can be represented with just 32 bits)
	movl	$11,%r8d
	leaq	-16(%rbp),%rcx
	call	fpc_ansistr_concat_multi
	movq	-16(%rbp),%rdx
	movq	U_$P$DISTENCWORKERCLI_$$_TCP(%rip),%rax
	movq	16(%rax),%rcx
	xorq	%r8,%r8
	movq	U_$P$DISTENCWORKERCLI_$$_TCP(%rip),%rax
	movq	16(%rax),%rax
	movq	(%rax),%rax
	call	*640(%rax)
.Ll291:
	movq	U_$P$DISTENCWORKERCLI_$$_TCP(%rip),%rax
	movq	16(%rax),%rcx
	movq	U_$P$DISTENCWORKERCLI_$$_TCP(%rip),%rax
	movq	16(%rax),%rax
	movq	(%rax),%rax
	call	*448(%rax)
.Lj231:
.Ll292:
	nop
.Lj230:
	movq	%rbp,%rcx
	call	P$DISTENCWORKERCLI$_$SENDPROGRESS$TJOB_$$_fin$0000008C
.Ll293:
	movq	-440(%rbp),%rbx
	leaq	(%rbp),%rsp
	popq	%rbp
	ret
.seh_handler __FPC_specific_handler,@unwind
.seh_handlerdata
	.long	1
	.long	0
	.rva	.Lj229
	.rva	.Lj230
	.rva	P$DISTENCWORKERCLI$_$SENDPROGRESS$TJOB_$$_fin$0000008C

.section .text.n_p$distencworkercli_$$_sendprogress$tjob,"ax"
.seh_endproc
.Lc175:
.Lt29:
.Ll294:

.section .text.n_p$distencworkercli$_$tltcptest_$__$$_onds$tlsocket,"ax"
	.balign 16,0x90
.globl	P$DISTENCWORKERCLI$_$TLTCPTEST_$__$$_ONDS$TLSOCKET
P$DISTENCWORKERCLI$_$TLTCPTEST_$__$$_ONDS$TLSOCKET:
.Lc181:
.seh_proc P$DISTENCWORKERCLI$_$TLTCPTEST_$__$$_ONDS$TLSOCKET
.Ll295:
	pushq	%rbp
.seh_pushreg %rbp
.Lc182:
.Lc183:
	movq	%rsp,%rbp
.Lc184:
	leaq	-64(%rsp),%rsp
.seh_stackalloc 64
	movq	%rbx,-24(%rbp)
.seh_savereg %rbx, 40
.seh_endprologue
	movq	%rcx,-16(%rbp)
	movq	%rdx,-8(%rbp)
.Ll296:
	call	fpc_get_output
	movq	%rax,%rbx
	leaq	_$DISTENCWORKERCLI$_Ld62(%rip),%r8
	movq	%rbx,%rdx
	xorl	%ecx,%ecx
	call	fpc_write_text_shortstr
	call	fpc_iocheck
	movq	%rbx,%rcx
	call	fpc_writeln_end
	call	fpc_iocheck
.Ll297:
	movq	-24(%rbp),%rbx
	leaq	(%rbp),%rsp
	popq	%rbp
	ret
.seh_endproc
.Lc180:
.Lt47:
.Ll298:

.section .text.n_p$distencworkercli$_$runcurlupload$tjob_$$_fin$00000090,"ax"
	.balign 16,0x90
.globl	P$DISTENCWORKERCLI$_$RUNCURLUPLOAD$TJOB_$$_fin$00000090
P$DISTENCWORKERCLI$_$RUNCURLUPLOAD$TJOB_$$_fin$00000090:
.Lc186:
.seh_proc P$DISTENCWORKERCLI$_$RUNCURLUPLOAD$TJOB_$$_fin$00000090
.Ll299:
	pushq	%rbp
.seh_pushreg %rbp
.Lc187:
.Lc188:
	movq	%rcx,%rbp
.Lc189:
	leaq	-32(%rsp),%rsp
.seh_stackalloc 32
.seh_endprologue
.Ll300:
	leaq	-80(%rbp),%rcx
	call	fpc_ansistr_decr_ref
	leaq	-72(%rbp),%rcx
	call	fpc_ansistr_decr_ref
	leaq	-64(%rbp),%rcx
	call	fpc_ansistr_decr_ref
.Ll301:
	nop
	leaq	32(%rsp),%rsp
	popq	%rbp
.Lc190:
	ret
.seh_endproc
.Lc185:
.Lt32:
.Ll302:

.section .text.n_p$distencworkercli_$$_runcurlupload$tjob,"ax"
	.balign 16,0x90
.globl	P$DISTENCWORKERCLI_$$_RUNCURLUPLOAD$TJOB
P$DISTENCWORKERCLI_$$_RUNCURLUPLOAD$TJOB:
.Lc192:
.seh_proc P$DISTENCWORKERCLI_$$_RUNCURLUPLOAD$TJOB
.Ll303:
	pushq	%rbp
.seh_pushreg %rbp
.Lc193:
.Lc194:
	movq	%rsp,%rbp
.Lc195:
	leaq	-240(%rsp),%rsp
.seh_stackalloc 240
	movq	%rbx,-192(%rbp)
.seh_savereg %rbx, 48
.seh_endprologue
	movq	%rcx,-8(%rbp)
.Ll304:
	movq	$0,-80(%rbp)
	movq	$0,-72(%rbp)
	movq	$0,-64(%rbp)
.Lj245:
	nop
.Lj241:
# Peephole Optimization: movq $1,%rax -> movl $1,%eax (immediate can be represented with just 32 bits)
.Ll305:
	movl	$1,%eax
	leaq	VMT_$CLASSES_$$_TSTRINGLIST(%rip),%rcx
	movq	%rax,%rdx
	call	CLASSES$_$TSTRINGS_$__$$_CREATE$$TSTRINGS
	movq	%rax,-16(%rbp)
.Ll306:
	movq	$0,40(%rsp)
	leaq	-16(%rbp),%rax
	movq	%rax,32(%rsp)
	leaq	.Ld63(%rip),%rax
	movq	%rax,-56(%rbp)
	leaq	.Ld64(%rip),%rax
	movq	%rax,-48(%rbp)
	leaq	.Ld28(%rip),%rax
	movq	%rax,-40(%rbp)
	leaq	.Ld29(%rip),%rax
	movq	%rax,-32(%rbp)
	movq	TC_$P$DISTENCWORKERCLI_$$_OF_URL+8(%rip),%rax
	movq	%rax,-24(%rbp)
	leaq	-56(%rbp),%rdx
	movq	U_$P$DISTENCWORKERCLI_$$_CURLPATH(%rip),%rcx
	movl	$20,%r9d
# Peephole Optimization: movq $4,%r8 -> movl $4,%r8d (immediate can be represented with just 32 bits)
	movl	$4,%r8d
	call	P$DISTENCWORKERCLI_$$_EXECTOSTRINGS$crcA7075E84
.Ll307:
	movq	-16(%rbp),%rcx
	xorl	%r8d,%r8d
	leaq	-72(%rbp),%rdx
	movq	-16(%rbp),%rax
	movq	(%rax),%rax
	call	*240(%rax)
	movq	-72(%rbp),%rdx
# Peephole Optimization: movq $1,%r8 -> movl $1,%r8d (immediate can be represented with just 32 bits)
	movl	$1,%r8d
	leaq	.Ld65(%rip),%rcx
	call	SYSTEM_$$_POS$RAWBYTESTRING$RAWBYTESTRING$INT64$$INT64
	leaq	6(%rax),%rbx
	movq	-16(%rbp),%rcx
	xorl	%r8d,%r8d
	leaq	-80(%rbp),%rdx
	movq	-16(%rbp),%rax
	movq	(%rax),%rax
	call	*240(%rax)
	movq	-80(%rbp),%rdx
# Peephole Optimization: movq $10,%r9 -> movl $10,%r9d (immediate can be represented with just 32 bits)
	movl	$10,%r9d
	leaq	-64(%rbp),%rcx
	movq	%rbx,%r8
	call	fpc_ansistr_copy
	movq	-64(%rbp),%rdx
	movq	-8(%rbp),%rax
	leaq	104(%rax),%rcx
	call	fpc_ansistr_assign
.Ll308:
	movq	-16(%rbp),%rcx
	movq	-16(%rbp),%rax
	movq	(%rax),%rax
	call	*368(%rax)
.Ll309:
	call	fpc_get_output
	movq	%rax,%rbx
	leaq	-72(%rbp),%rcx
	call	fpc_ansistr_decr_ref
	movq	-8(%rbp),%rax
	movq	104(%rax),%r8
	movl	$65535,%r9d
	leaq	.Ld66(%rip),%rdx
	leaq	-72(%rbp),%rcx
	call	fpc_ansistr_concat
	movq	-72(%rbp),%r8
	movq	%rbx,%rdx
	xorl	%ecx,%ecx
	call	fpc_write_text_ansistr
	call	fpc_iocheck
	movq	%rbx,%rcx
	call	fpc_writeln_end
	call	fpc_iocheck
.Ll310:
	leaq	-80(%rbp),%rcx
	call	fpc_ansistr_decr_ref
	movq	-8(%rbp),%rax
	movq	104(%rax),%r8
	xorl	%r9d,%r9d
	leaq	.Ld66(%rip),%rdx
	leaq	-80(%rbp),%rcx
	call	fpc_ansistr_concat
	movq	-80(%rbp),%rdx
	leaq	U_$P$DISTENCWORKERCLI_$$_LOGFILE(%rip),%rcx
	call	P$DISTENCWORKERCLI_$$_LOG$TEXT$ANSISTRING
.Ll311:
	movq	-8(%rbp),%rax
	movq	96(%rax),%rax
	movq	%rax,40(%rsp)
	leaq	-16(%rbp),%rax
	movq	%rax,32(%rsp)
	leaq	.Ld27(%rip),%rax
	movq	%rax,-128(%rbp)
	leaq	.Ld67(%rip),%rax
	movq	%rax,-120(%rbp)
	movq	U_$P$DISTENCWORKERCLI_$$_OF_COOKIE(%rip),%rax
	movq	%rax,-112(%rbp)
	leaq	.Ld30(%rip),%rax
	movq	%rax,-104(%rbp)
	leaq	-80(%rbp),%rcx
	call	fpc_ansistr_decr_ref
	leaq	.Ld68(%rip),%rax
	movq	%rax,-184(%rbp)
	movq	-8(%rbp),%rax
	movq	24(%rax),%rax
	movq	%rax,-176(%rbp)
	leaq	.Ld69(%rip),%rax
	movq	%rax,-168(%rbp)
	leaq	.Ld70(%rip),%rax
	movq	%rax,-160(%rbp)
	leaq	.Ld69(%rip),%rax
	movq	%rax,-152(%rbp)
	movq	-8(%rbp),%rax
	movq	16(%rax),%rax
	movq	%rax,-144(%rbp)
	leaq	.Ld69(%rip),%rax
	movq	%rax,-136(%rbp)
	leaq	-184(%rbp),%rdx
	xorl	%r9d,%r9d
# Peephole Optimization: movq $6,%r8 -> movl $6,%r8d (immediate can be represented with just 32 bits)
	movl	$6,%r8d
	leaq	-80(%rbp),%rcx
	call	fpc_ansistr_concat_multi
	movq	-80(%rbp),%rax
	movq	%rax,-96(%rbp)
	leaq	-64(%rbp),%rcx
	call	fpc_ansistr_decr_ref
	movq	-8(%rbp),%rax
	movq	104(%rax),%r8
	movq	TC_$P$DISTENCWORKERCLI_$$_OF_URL+16(%rip),%rdx
	xorl	%r9d,%r9d
	leaq	-64(%rbp),%rcx
	call	fpc_ansistr_concat
	movq	-64(%rbp),%rax
	movq	%rax,-88(%rbp)
	leaq	-128(%rbp),%rdx
	movq	U_$P$DISTENCWORKERCLI_$$_CURLPATH(%rip),%rcx
	movl	$18,%r9d
# Peephole Optimization: movq $5,%r8 -> movl $5,%r8d (immediate can be represented with just 32 bits)
	movl	$5,%r8d
	call	P$DISTENCWORKERCLI_$$_EXECTOSTRINGS$crcA7075E84
.Ll312:
	leaq	-16(%rbp),%rcx
	call	SYSUTILS_$$_FREEANDNIL$formal
.Lj243:
.Ll313:
	nop
.Lj242:
	movq	%rbp,%rcx
	call	P$DISTENCWORKERCLI$_$RUNCURLUPLOAD$TJOB_$$_fin$00000090
.Ll314:
	movq	-192(%rbp),%rbx
	leaq	(%rbp),%rsp
	popq	%rbp
	ret
.seh_handler __FPC_specific_handler,@unwind
.seh_handlerdata
	.long	1
	.long	0
	.rva	.Lj241
	.rva	.Lj242
	.rva	P$DISTENCWORKERCLI$_$RUNCURLUPLOAD$TJOB_$$_fin$00000090

.section .text.n_p$distencworkercli_$$_runcurlupload$tjob,"ax"
.seh_endproc
.Lc191:
.Lt31:
.Ll315:

.section .text.n_p$distencworkercli_$$_startuploadpiece$tjob,"ax"
	.balign 16,0x90
.globl	P$DISTENCWORKERCLI_$$_STARTUPLOADPIECE$TJOB
P$DISTENCWORKERCLI_$$_STARTUPLOADPIECE$TJOB:
.Lc197:
.seh_proc P$DISTENCWORKERCLI_$$_STARTUPLOADPIECE$TJOB
.Ll316:
	pushq	%rbp
.seh_pushreg %rbp
.Lc198:
.Lc199:
	movq	%rsp,%rbp
.Lc200:
	leaq	-48(%rsp),%rsp
.seh_stackalloc 48
.seh_endprologue
# Peephole Optimization: MovMov2MovMov1 done
	movq	%rcx,-8(%rbp)
# Peephole Optimization: MovMov2Mov 2 done
# Peephole Optimization: Mov2Nop done
.Ll317:
	call	P$DISTENCWORKERCLI_$$_RUNCURLUPLOAD$TJOB
.Ll318:
	movq	-8(%rbp),%rax
	movb	$1,144(%rax)
.Ll319:
	nop
	leaq	(%rbp),%rsp
	popq	%rbp
	ret
.seh_endproc
.Lc196:
.Lt33:
.Ll320:

.section .text.n_p$distencworkercli_$$_istaskfinished$tprocess$$boolean,"ax"
	.balign 16,0x90
.globl	P$DISTENCWORKERCLI_$$_ISTASKFINISHED$TPROCESS$$BOOLEAN
P$DISTENCWORKERCLI_$$_ISTASKFINISHED$TPROCESS$$BOOLEAN:
.Lc202:
.seh_proc P$DISTENCWORKERCLI_$$_ISTASKFINISHED$TPROCESS$$BOOLEAN
.Ll321:
	pushq	%rbp
.seh_pushreg %rbp
.Lc203:
.Lc204:
	movq	%rsp,%rbp
.Lc205:
	leaq	-48(%rsp),%rsp
.seh_stackalloc 48
.seh_endprologue
	movq	%rcx,-8(%rbp)
# Peephole Optimization: MovTestCmp2MovTestCmp 1
.Ll322:
	testq	%rcx,%rcx
	je	.Lj251
# Peephole Optimization: MovMov2Mov 3 done
.Ll323:
	movq	-8(%rbp),%rcx
	call	PROCESS$_$TPROCESS_$__$$_GETRUNNING$$BOOLEAN
	testb	%al,%al
	je	.Lj253
	movb	$0,-12(%rbp)
	jmp	.Lj255
	.p2align 4,,10
	.p2align 3
.Lj253:
.Ll324:
	movb	$1,-12(%rbp)
	jmp	.Lj255
	.p2align 4,,10
	.p2align 3
.Lj251:
	movb	$1,-12(%rbp)
.Lj255:
.Ll325:
	movb	-12(%rbp),%al
	nop
	leaq	(%rbp),%rsp
	popq	%rbp
	ret
.seh_endproc
.Lc201:
.Lt34:
.Ll326:

.section .text.n_p$distencworkercli$_$getuploadurl$tjob_$$_fin$000000ad,"ax"
	.balign 16,0x90
.globl	P$DISTENCWORKERCLI$_$GETUPLOADURL$TJOB_$$_fin$000000AD
P$DISTENCWORKERCLI$_$GETUPLOADURL$TJOB_$$_fin$000000AD:
.Lc207:
.seh_proc P$DISTENCWORKERCLI$_$GETUPLOADURL$TJOB_$$_fin$000000AD
.Ll327:
	pushq	%rbp
.seh_pushreg %rbp
.Lc208:
.Lc209:
	movq	%rcx,%rbp
.Lc210:
	leaq	-32(%rsp),%rsp
.seh_stackalloc 32
.seh_endprologue
.Ll328:
	leaq	-88(%rbp),%rcx
	call	fpc_ansistr_decr_ref
	leaq	-80(%rbp),%rcx
	call	fpc_ansistr_decr_ref
	leaq	-72(%rbp),%rcx
	call	fpc_ansistr_decr_ref
.Ll329:
	nop
	leaq	32(%rsp),%rsp
	popq	%rbp
.Lc211:
	ret
.seh_endproc
.Lc206:
.Lt36:
.Ll330:

.section .text.n_p$distencworkercli_$$_getuploadurl$tjob,"ax"
	.balign 16,0x90
.globl	P$DISTENCWORKERCLI_$$_GETUPLOADURL$TJOB
P$DISTENCWORKERCLI_$$_GETUPLOADURL$TJOB:
.Lc213:
.seh_proc P$DISTENCWORKERCLI_$$_GETUPLOADURL$TJOB
.Ll331:
	pushq	%rbp
.seh_pushreg %rbp
.Lc214:
.Lc215:
	movq	%rsp,%rbp
.Lc216:
	leaq	-144(%rsp),%rsp
.seh_stackalloc 144
	movq	%rbx,-96(%rbp)
.seh_savereg %rbx, 48
.seh_endprologue
	movq	%rcx,-8(%rbp)
.Ll332:
	movq	$0,-88(%rbp)
	movq	$0,-80(%rbp)
	movq	$0,-72(%rbp)
.Lj264:
	nop
.Lj260:
# Peephole Optimization: movq $1,%rax -> movl $1,%eax (immediate can be represented with just 32 bits)
.Ll333:
	movl	$1,%eax
	leaq	VMT_$CLASSES_$$_TSTRINGLIST(%rip),%rcx
	movq	%rax,%rdx
	call	CLASSES$_$TSTRINGS_$__$$_CREATE$$TSTRINGS
	movq	%rax,-16(%rbp)
.Ll334:
	movq	$0,40(%rsp)
	leaq	-16(%rbp),%rax
	movq	%rax,32(%rsp)
	leaq	.Ld71(%rip),%rax
	movq	%rax,-64(%rbp)
	leaq	.Ld63(%rip),%rax
	movq	%rax,-56(%rbp)
	leaq	.Ld72(%rip),%rax
	movq	%rax,-48(%rbp)
	leaq	.Ld63(%rip),%rax
	movq	%rax,-40(%rbp)
	leaq	.Ld73(%rip),%rax
	movq	%rax,-32(%rbp)
	leaq	-72(%rbp),%rcx
	call	fpc_ansistr_decr_ref
	movq	-8(%rbp),%rax
	movq	104(%rax),%r8
	movq	TC_$P$DISTENCWORKERCLI_$$_OF_URL+24(%rip),%rdx
	xorl	%r9d,%r9d
	leaq	-72(%rbp),%rcx
	call	fpc_ansistr_concat
	movq	-72(%rbp),%rax
	movq	%rax,-24(%rbp)
	leaq	-64(%rbp),%rdx
	movq	U_$P$DISTENCWORKERCLI_$$_CURLPATH(%rip),%rcx
	movl	$22,%r9d
# Peephole Optimization: movq $5,%r8 -> movl $5,%r8d (immediate can be represented with just 32 bits)
	movl	$5,%r8d
	call	P$DISTENCWORKERCLI_$$_EXECTOSTRINGS$crcA7075E84
.Ll335:
	movq	-16(%rbp),%rcx
	leaq	-80(%rbp),%rdx
	movq	-16(%rbp),%rax
	movq	(%rax),%rax
	call	*272(%rax)
	movq	-80(%rbp),%rdx
# Peephole Optimization: movq $1,%r8 -> movl $1,%r8d (immediate can be represented with just 32 bits)
	movl	$1,%r8d
	leaq	.Ld74(%rip),%rcx
	call	SYSTEM_$$_POS$RAWBYTESTRING$RAWBYTESTRING$INT64$$INT64
	leaq	12(%rax),%rbx
	movq	-16(%rbp),%rcx
	leaq	-88(%rbp),%rdx
	movq	-16(%rbp),%rax
	movq	(%rax),%rax
	call	*272(%rax)
	movq	-88(%rbp),%rdx
# Peephole Optimization: movq $42,%r9 -> movl $42,%r9d (immediate can be represented with just 32 bits)
	movl	$42,%r9d
	leaq	-72(%rbp),%rcx
	movq	%rbx,%r8
	call	fpc_ansistr_copy
	movq	-72(%rbp),%rdx
	movq	-8(%rbp),%rax
	leaq	112(%rax),%rcx
	call	fpc_ansistr_assign
.Ll336:
	call	fpc_get_output
	movq	%rax,%rbx
	leaq	_$DISTENCWORKERCLI$_Ld75(%rip),%r8
	movq	%rbx,%rdx
	xorl	%ecx,%ecx
	call	fpc_write_text_shortstr
	call	fpc_iocheck
	movq	-8(%rbp),%rax
	movq	112(%rax),%r8
	movq	%rbx,%rdx
	xorl	%ecx,%ecx
	call	fpc_write_text_ansistr
	call	fpc_iocheck
	movq	%rbx,%rcx
	call	fpc_writeln_end
	call	fpc_iocheck
.Ll337:
	leaq	-88(%rbp),%rcx
	call	fpc_ansistr_decr_ref
	leaq	.Ld76(%rip),%rax
	movq	%rax,-48(%rbp)
	movq	-8(%rbp),%rax
	movq	16(%rax),%rax
	movq	%rax,-40(%rbp)
	leaq	.Ld77(%rip),%rax
	movq	%rax,-32(%rbp)
	movq	-8(%rbp),%rax
	movq	112(%rax),%rax
	movq	%rax,-24(%rbp)
	leaq	-48(%rbp),%rdx
	xorl	%r9d,%r9d
# Peephole Optimization: movq $3,%r8 -> movl $3,%r8d (immediate can be represented with just 32 bits)
	movl	$3,%r8d
	leaq	-88(%rbp),%rcx
	call	fpc_ansistr_concat_multi
	movq	-88(%rbp),%rdx
	leaq	U_$P$DISTENCWORKERCLI_$$_LOGFILE(%rip),%rcx
	call	P$DISTENCWORKERCLI_$$_LOG$TEXT$ANSISTRING
.Ll338:
	movq	-16(%rbp),%rcx
	call	SYSTEM$_$TOBJECT_$__$$_FREE
.Lj262:
.Ll339:
	nop
.Lj261:
	movq	%rbp,%rcx
	call	P$DISTENCWORKERCLI$_$GETUPLOADURL$TJOB_$$_fin$000000AD
.Ll340:
	movq	-96(%rbp),%rbx
	leaq	(%rbp),%rsp
	popq	%rbp
	ret
.seh_handler __FPC_specific_handler,@unwind
.seh_handlerdata
	.long	1
	.long	0
	.rva	.Lj260
	.rva	.Lj261
	.rva	P$DISTENCWORKERCLI$_$GETUPLOADURL$TJOB_$$_fin$000000AD

.section .text.n_p$distencworkercli_$$_getuploadurl$tjob,"ax"
.seh_endproc
.Lc212:
.Lt35:
.Ll341:

.section .text.n_p$distencworkercli_$$_sendfinished$tjob,"ax"
	.balign 16,0x90
.globl	P$DISTENCWORKERCLI_$$_SENDFINISHED$TJOB
P$DISTENCWORKERCLI_$$_SENDFINISHED$TJOB:
.Lc218:
.seh_proc P$DISTENCWORKERCLI_$$_SENDFINISHED$TJOB
.Ll342:
	pushq	%rbp
.seh_pushreg %rbp
.Lc219:
.Lc220:
	movq	%rsp,%rbp
.Lc221:
	leaq	-48(%rsp),%rsp
.seh_stackalloc 48
	movq	%rbx,-16(%rbp)
.seh_savereg %rbx, 32
.seh_endprologue
	movq	%rcx,-8(%rbp)
.Ll343:
	call	fpc_get_output
	movq	%rax,%rbx
	leaq	_$DISTENCWORKERCLI$_Ld78(%rip),%r8
	movq	%rbx,%rdx
	xorl	%ecx,%ecx
	call	fpc_write_text_shortstr
	call	fpc_iocheck
	movq	%rbx,%rcx
	call	fpc_writeln_end
	call	fpc_iocheck
.Ll344:
	movq	-8(%rbp),%rcx
	call	P$DISTENCWORKERCLI_$$_SENDPROGRESS$TJOB
.Ll345:
	movl	$100,%ecx
	call	SYSUTILS_$$_SLEEP$LONGWORD
.Ll346:
	movq	-16(%rbp),%rbx
	leaq	(%rbp),%rsp
	popq	%rbp
	ret
.seh_endproc
.Lc217:
.Lt37:
.Ll347:

.section .text.n_p$distencworkercli$_$getfilesize$ansistring$$int64_$$_fin$000000c1,"ax"
	.balign 16,0x90
.globl	P$DISTENCWORKERCLI$_$GETFILESIZE$ANSISTRING$$INT64_$$_fin$000000C1
P$DISTENCWORKERCLI$_$GETFILESIZE$ANSISTRING$$INT64_$$_fin$000000C1:
.Lc223:
.seh_proc P$DISTENCWORKERCLI$_$GETFILESIZE$ANSISTRING$$INT64_$$_fin$000000C1
.Ll348:
	pushq	%rbp
.seh_pushreg %rbp
.Lc224:
.Lc225:
	movq	%rcx,%rbp
.Lc226:
	leaq	-32(%rsp),%rsp
.seh_stackalloc 32
.seh_endprologue
.Ll349:
	leaq	-664(%rbp),%rcx
	call	fpc_unicodestr_decr_ref
# Peephole Optimization: LeaMov2Lea done
	leaq	INIT_$SYSUTILS_$$_TUNICODESEARCHREC(%rip),%rdx
	leaq	-656(%rbp),%rcx
	call	fpc_finalize
.Ll350:
	nop
	leaq	32(%rsp),%rsp
	popq	%rbp
.Lc227:
	ret
.seh_endproc
.Lc222:
.Lt39:
.Ll351:

.section .text.n_p$distencworkercli_$$_getfilesize$ansistring$$int64,"ax"
	.balign 16,0x90
.globl	P$DISTENCWORKERCLI_$$_GETFILESIZE$ANSISTRING$$INT64
P$DISTENCWORKERCLI_$$_GETFILESIZE$ANSISTRING$$INT64:
.Lc229:
.seh_proc P$DISTENCWORKERCLI_$$_GETFILESIZE$ANSISTRING$$INT64
.Ll352:
	pushq	%rbp
.seh_pushreg %rbp
.Lc230:
.Lc231:
	movq	%rsp,%rbp
.Lc232:
	leaq	-720(%rsp),%rsp
.seh_stackalloc 720
	movq	%rbx,-680(%rbp)
	movq	%rsi,-672(%rbp)
.seh_savereg %rbx, 40
.seh_savereg %rsi, 48
.seh_endprologue
	movq	%rcx,-8(%rbp)
# Peephole Optimization: LeaMov2Lea done
.Ll353:
	leaq	INIT_$SYSUTILS_$$_TUNICODESEARCHREC(%rip),%rdx
	leaq	-656(%rbp),%rcx
	call	fpc_initialize
	movq	$0,-664(%rbp)
.Lj275:
	nop
.Lj271:
.Ll354:
	leaq	-656(%rbp),%rbx
	leaq	INIT_$SYSUTILS_$$_TUNICODESEARCHREC(%rip),%rdx
	movq	%rbx,%rcx
	call	fpc_finalize
	movq	%rbx,%rsi
	movq	-8(%rbp),%rdx
	leaq	-664(%rbp),%rcx
	call	fpc_ansistr_to_unicodestr
	movq	-664(%rbp),%rcx
	movl	$511,%edx
	movq	%rsi,%r8
	call	SYSUTILS_$$_FINDFIRST$UNICODESTRING$LONGINT$TUNICODESEARCHREC$$LONGINT
	testl	%eax,%eax
	jne	.Lj277
.Ll355:
	movq	-648(%rbp),%rax
	movq	%rax,-16(%rbp)
.Lj277:
.Ll356:
	leaq	-656(%rbp),%rcx
	call	SYSUTILS_$$_FINDCLOSE$TUNICODESEARCHREC
.Lj273:
.Ll357:
	nop
.Lj272:
	movq	%rbp,%rcx
	call	P$DISTENCWORKERCLI$_$GETFILESIZE$ANSISTRING$$INT64_$$_fin$000000C1
.Ll358:
	movq	-16(%rbp),%rax
	movq	-680(%rbp),%rbx
	movq	-672(%rbp),%rsi
	leaq	(%rbp),%rsp
	popq	%rbp
	ret
.seh_handler __FPC_specific_handler,@unwind
.seh_handlerdata
	.long	1
	.long	0
	.rva	.Lj271
	.rva	.Lj272
	.rva	P$DISTENCWORKERCLI$_$GETFILESIZE$ANSISTRING$$INT64_$$_fin$000000C1

.section .text.n_p$distencworkercli_$$_getfilesize$ansistring$$int64,"ax"
.seh_endproc
.Lc228:
.Lt38:
.Ll359:

.section .text.n_p$distencworkercli_$$_killalljobs,"ax"
	.balign 16,0x90
.globl	P$DISTENCWORKERCLI_$$_KILLALLJOBS
P$DISTENCWORKERCLI_$$_KILLALLJOBS:
.Lc234:
.seh_proc P$DISTENCWORKERCLI_$$_KILLALLJOBS
.Ll360:
	pushq	%rbp
.seh_pushreg %rbp
.Lc235:
.Lc236:
	movq	%rsp,%rbp
.Lc237:
	leaq	-48(%rsp),%rsp
.seh_stackalloc 48
.seh_endprologue
.Ll361:
	movq	U_$P$DISTENCWORKERCLI_$$_JOBS(%rip),%rcx
	call	fpc_dynarray_high
	testl	%eax,%eax
	jnge	.Lj281
# Peephole Optimization: MovMov2Mov 1
	movl	%eax,-4(%rbp)
# Peephole Optimization: Lea2Add done
	addl	$1,%eax
	movl	%eax,-4(%rbp)
	.p2align 4,,10
	.p2align 3
.Lj282:
# Peephole Optimization: MovOpMov2Op (movl subl movl)
# Peephole Optimization: Lea2Sub done
	subl	$1,-4(%rbp)
.Ll362:
	movq	U_$P$DISTENCWORKERCLI_$$_JOBS(%rip),%rdx
	movslq	-4(%rbp),%rax
	imulq	$152,%rax,%rax
	movq	88(%rdx,%rax),%rcx
	call	PROCESS$_$TPROCESS_$__$$_GETRUNNING$$BOOLEAN
	testb	%al,%al
	je	.Lj286
	movq	U_$P$DISTENCWORKERCLI_$$_JOBS(%rip),%rdx
	movslq	-4(%rbp),%rax
	imulq	$152,%rax,%rax
	movq	88(%rdx,%rax),%rcx
	movl	$1,%edx
	movq	U_$P$DISTENCWORKERCLI_$$_JOBS(%rip),%r8
	movslq	-4(%rbp),%rax
	imulq	$152,%rax,%rax
	movq	88(%r8,%rax),%rax
	movq	(%rax),%rax
	call	*496(%rax)
.Lj286:
.Ll363:
	cmpl	$0,-4(%rbp)
	jnle	.Lj282
.Lj281:
.Ll364:
	nop
	leaq	(%rbp),%rsp
	popq	%rbp
	ret
.seh_endproc
.Lc233:
.Lt40:
.Ll365:

.section .text.n_p$distencworkercli$_$getjob_$$_fin$000000c4,"ax"
	.balign 16,0x90
.globl	P$DISTENCWORKERCLI$_$GETJOB_$$_fin$000000C4
P$DISTENCWORKERCLI$_$GETJOB_$$_fin$000000C4:
.Lc239:
.seh_proc P$DISTENCWORKERCLI$_$GETJOB_$$_fin$000000C4
.Ll366:
	pushq	%rbp
.seh_pushreg %rbp
.Lc240:
.Lc241:
	movq	%rcx,%rbp
.Lc242:
	leaq	-32(%rsp),%rsp
.seh_stackalloc 32
.seh_endprologue
.Ll367:
	leaq	-56(%rbp),%rcx
	call	fpc_ansistr_decr_ref
	leaq	-48(%rbp),%rcx
	call	fpc_ansistr_decr_ref
	leaq	-8(%rbp),%rcx
	call	fpc_ansistr_decr_ref
.Ll368:
	nop
	leaq	32(%rsp),%rsp
	popq	%rbp
.Lc243:
	ret
.seh_endproc
.Lc238:
.Lt42:
.Ll369:

.section .text.n_p$distencworkercli_$$_getjob,"ax"
	.balign 16,0x90
.globl	P$DISTENCWORKERCLI_$$_GETJOB
P$DISTENCWORKERCLI_$$_GETJOB:
.Lc245:
.seh_proc P$DISTENCWORKERCLI_$$_GETJOB
.Ll370:
	pushq	%rbp
.seh_pushreg %rbp
.Lc246:
.Lc247:
	movq	%rsp,%rbp
.Lc248:
	leaq	-96(%rsp),%rsp
.seh_stackalloc 96
.seh_endprologue
.Ll371:
	movq	$0,-56(%rbp)
	movq	$0,-48(%rbp)
	movq	$0,-8(%rbp)
.Lj295:
	nop
.Lj291:
.Ll372:
	leaq	-8(%rbp),%rcx
	call	fpc_ansistr_decr_ref
	leaq	.Ld79(%rip),%rax
	movq	%rax,-40(%rbp)
	movzbl	TC_$P$DISTENCWORKERCLI_$$_DC(%rip),%edx
	xorl	%r8d,%r8d
	leaq	-48(%rbp),%rcx
	call	fpc_char_to_ansistr
	movq	-48(%rbp),%rax
	movq	%rax,-32(%rbp)
	movq	U_$P$DISTENCWORKERCLI_$$_OS(%rip),%rax
	movq	%rax,-24(%rbp)
	movzbl	TC_$P$DISTENCWORKERCLI_$$_DC(%rip),%edx
	xorl	%r8d,%r8d
	leaq	-56(%rbp),%rcx
	call	fpc_char_to_ansistr
	movq	-56(%rbp),%rax
	movq	%rax,-16(%rbp)
	leaq	-40(%rbp),%rdx
	xorl	%r9d,%r9d
# Peephole Optimization: movq $3,%r8 -> movl $3,%r8d (immediate can be represented with just 32 bits)
	movl	$3,%r8d
	leaq	-8(%rbp),%rcx
	call	fpc_ansistr_concat_multi
	movq	-8(%rbp),%rdx
	movq	U_$P$DISTENCWORKERCLI_$$_TCP(%rip),%rax
	movq	16(%rax),%rcx
	xorq	%r8,%r8
	movq	U_$P$DISTENCWORKERCLI_$$_TCP(%rip),%rax
	movq	16(%rax),%rax
	movq	(%rax),%rax
	call	*640(%rax)
.Ll373:
	movq	U_$P$DISTENCWORKERCLI_$$_TCP(%rip),%rax
	movq	16(%rax),%rcx
	movq	U_$P$DISTENCWORKERCLI_$$_TCP(%rip),%rax
	movq	16(%rax),%rax
	movq	(%rax),%rax
	call	*448(%rax)
.Lj293:
.Ll374:
	nop
.Lj292:
	movq	%rbp,%rcx
	call	P$DISTENCWORKERCLI$_$GETJOB_$$_fin$000000C4
.Ll375:
	nop
	leaq	(%rbp),%rsp
	popq	%rbp
	ret
.seh_handler __FPC_specific_handler,@unwind
.seh_handlerdata
	.long	1
	.long	0
	.rva	.Lj291
	.rva	.Lj292
	.rva	P$DISTENCWORKERCLI$_$GETJOB_$$_fin$000000C4

.section .text.n_p$distencworkercli_$$_getjob,"ax"
.seh_endproc
.Lc244:
.Lt41:
.Ll376:

.section .text.n_p$distencworkercli$_$mainloop_$$_fin$000000c8,"ax"
	.balign 16,0x90
.globl	P$DISTENCWORKERCLI$_$MAINLOOP_$$_fin$000000C8
P$DISTENCWORKERCLI$_$MAINLOOP_$$_fin$000000C8:
.Lc250:
.seh_proc P$DISTENCWORKERCLI$_$MAINLOOP_$$_fin$000000C8
.Ll377:
	pushq	%rbp
.seh_pushreg %rbp
.Lc251:
.Lc252:
	movq	%rcx,%rbp
.Lc253:
	leaq	-32(%rsp),%rsp
.seh_stackalloc 32
.seh_endprologue
.Ll378:
	leaq	-64(%rbp),%rcx
	call	fpc_ansistr_decr_ref
	leaq	-32(%rbp),%rcx
	call	fpc_ansistr_decr_ref
.Ll379:
	nop
	leaq	32(%rsp),%rsp
	popq	%rbp
.Lc254:
	ret
.seh_endproc
.Lc249:
.Lt44:
.Ll380:

.section .text.n_p$distencworkercli_$$_mainloop,"ax"
	.balign 16,0x90
.globl	P$DISTENCWORKERCLI_$$_MAINLOOP
P$DISTENCWORKERCLI_$$_MAINLOOP:
.Lc256:
.seh_proc P$DISTENCWORKERCLI_$$_MAINLOOP
.Ll381:
	pushq	%rbp
.seh_pushreg %rbp
.Lc257:
.Lc258:
	movq	%rsp,%rbp
.Lc259:
	leaq	-128(%rsp),%rsp
.seh_stackalloc 128
	movq	%rbx,-88(%rbp)
.seh_savereg %rbx, 40
.seh_endprologue
.Ll382:
	movq	$0,-64(%rbp)
	movq	$0,-32(%rbp)
.Lj304:
	nop
.Lj300:
.Ll383:
	movl	TC_$P$DISTENCWORKERCLI$_$MAINLOOP_$$_defaulti(%rip),%eax
	movl	%eax,-4(%rbp)
.Ll384:
	movb	$0,-24(%rbp)
	.p2align 4,,10
	.p2align 3
.Lj305:
.Ll385:
	movq	U_$P$DISTENCWORKERCLI_$$_TCP(%rip),%rax
	movq	16(%rax),%rcx
	movq	U_$P$DISTENCWORKERCLI_$$_TCP(%rip),%rax
	movq	16(%rax),%rax
	movq	(%rax),%rax
	call	*464(%rax)
	testb	%al,%al
	jne	.Lj309
.Ll386:
	call	fpc_get_output
	movq	%rax,%rbx
	leaq	_$DISTENCWORKERCLI$_Ld80(%rip),%r8
	movq	%rbx,%rdx
	xorl	%ecx,%ecx
	call	fpc_write_text_shortstr
	call	fpc_iocheck
	movq	%rbx,%rcx
	call	fpc_writeln_end
	call	fpc_iocheck
.Ll387:
	movq	U_$P$DISTENCWORKERCLI_$$_TCP(%rip),%rax
	movq	16(%rax),%rcx
	movzwl	U_$P$DISTENCWORKERCLI_$$_SERVERPORT(%rip),%r8d
	movq	U_$P$DISTENCWORKERCLI_$$_SERVERIP(%rip),%rdx
	movq	U_$P$DISTENCWORKERCLI_$$_TCP(%rip),%rax
	movq	16(%rax),%rax
	movq	(%rax),%rax
	call	*584(%rax)
	testb	%al,%al
	je	.Lj309
.Ll388:
	movq	U_$P$DISTENCWORKERCLI_$$_TCP(%rip),%rax
	movq	16(%rax),%rcx
	movq	U_$P$DISTENCWORKERCLI_$$_TCP(%rip),%rax
	movq	16(%rax),%rax
	movq	(%rax),%rax
	call	*448(%rax)
.Ll389:
	movq	U_$P$DISTENCWORKERCLI_$$_TCP(%rip),%rax
	movq	16(%rax),%rcx
	movq	U_$P$DISTENCWORKERCLI_$$_TCP(%rip),%rax
	movq	16(%rax),%rax
	movq	(%rax),%rax
	call	*464(%rax)
	testb	%al,%al
	je	.Lj309
	call	fpc_get_output
	movq	%rax,%rbx
	leaq	_$DISTENCWORKERCLI$_Ld81(%rip),%r8
	movq	%rbx,%rdx
	xorl	%ecx,%ecx
	call	fpc_write_text_shortstr
	call	fpc_iocheck
	movq	%rbx,%rcx
	call	fpc_writeln_end
	call	fpc_iocheck
.Lj309:
.Ll390:
	call	CRT_$$_KEYPRESSED$$BOOLEAN
	testb	%al,%al
	je	.Lj315
.Ll391:
	call	CRT_$$_READKEY$$CHAR
	movb	%al,-20(%rbp)
# Peephole Optimization: MovTestCmp2MovTestCmp 1
.Ll392:
	cmpb	$27,%al
	jne	.Lj317
	movb	$1,-24(%rbp)
.Lj317:
.Ll393:
	cmpb	$106,-20(%rbp)
	jne	.Lj319
	call	P$DISTENCWORKERCLI_$$_GETJOB
.Lj319:
.Ll394:
	cmpb	$48,-20(%rbp)
	jne	.Lj315
	call	P$DISTENCWORKERCLI_$$_KILLALLJOBS
.Lj315:
.Ll395:
	cmpl	$0,U_$P$DISTENCWORKERCLI_$$_CORECOUNT(%rip)
	jng	.Lj323
	movl	TC_$P$DISTENCWORKERCLI_$$_JOBCOUNT(%rip),%edx
	movslq	U_$P$DISTENCWORKERCLI_$$_CORECOUNT(%rip),%rax
	cmpq	%rax,%rdx
	jnl	.Lj323
	call	P$DISTENCWORKERCLI_$$_GETJOB
.Lj323:
.Ll396:
	movq	U_$P$DISTENCWORKERCLI_$$_JOBS(%rip),%rcx
	call	fpc_dynarray_high
	testl	%eax,%eax
	jnge	.Lj327
# Peephole Optimization: MovMov2Mov 1
	movl	%eax,-4(%rbp)
# Peephole Optimization: Lea2Add done
	addl	$1,%eax
	movl	%eax,-4(%rbp)
	.p2align 4,,10
	.p2align 3
.Lj328:
# Peephole Optimization: MovOpMov2Op (movl subl movl)
# Peephole Optimization: Lea2Sub done
	subl	$1,-4(%rbp)
# Peephole Optimization: movq $1,%rdx -> movl $1,%edx (immediate can be represented with just 32 bits)
.Ll397:
	movl	$1,%edx
	leaq	VMT_$CLASSES_$$_TSTRINGLIST(%rip),%rcx
	call	CLASSES$_$TSTRINGS_$__$$_CREATE$$TSTRINGS
	movq	%rax,-16(%rbp)
.Ll398:
	movq	U_$P$DISTENCWORKERCLI_$$_JOBS(%rip),%rdx
	movslq	-4(%rbp),%rax
	imulq	$152,%rax,%rax
	leaq	88(%rdx,%rax),%rcx
	leaq	-16(%rbp),%rdx
	call	P$DISTENCWORKERCLI_$$_READPROCOUTPUT$TPROCESS$TSTRINGLIST
.Ll399:
	movq	-16(%rbp),%rdx
	movl	-4(%rbp),%ecx
	call	P$DISTENCWORKERCLI_$$_GENERATEPROGRESS$LONGWORD$TSTRINGLIST
.Ll400:
	call	SYSUTILS_$$_NOW$$TDATETIME
	movq	U_$P$DISTENCWORKERCLI_$$_JOBS(%rip),%rdx
	movslq	-4(%rbp),%rax
	imulq	$152,%rax,%rax
	movsd	72(%rdx,%rax),%xmm1
	call	DATEUTILS_$$_SECONDSBETWEEN$TDATETIME$TDATETIME$$INT64
	movzwl	TC_$P$DISTENCWORKERCLI_$$_STATUSINTERVALTIME(%rip),%edx
	cmpq	%rdx,%rax
	jng	.Lj332
.Ll401:
	movq	U_$P$DISTENCWORKERCLI_$$_JOBS(%rip),%rdx
	movslq	-4(%rbp),%rax
	imulq	$152,%rax,%rax
	leaq	(%rdx,%rax),%rcx
	call	P$DISTENCWORKERCLI_$$_SENDPROGRESS$TJOB
.Ll402:
	call	SYSUTILS_$$_NOW$$TDATETIME
	movq	U_$P$DISTENCWORKERCLI_$$_JOBS(%rip),%rdx
	movslq	-4(%rbp),%rax
	imulq	$152,%rax,%rax
	movsd	%xmm0,72(%rdx,%rax)
.Ll403:
	movq	U_$P$DISTENCWORKERCLI_$$_JOBS(%rip),%rdx
	movslq	-4(%rbp),%rax
	imulq	$152,%rax,%rax
	movq	88(%rdx,%rax),%rcx
	call	P$DISTENCWORKERCLI_$$_ISTASKFINISHED$TPROCESS$$BOOLEAN
	testb	%al,%al
	je	.Lj332
.Ll404:
	movq	U_$P$DISTENCWORKERCLI_$$_JOBS(%rip),%rdx
	movslq	-4(%rbp),%rax
	imulq	$152,%rax,%rax
	movq	24(%rdx,%rax),%rcx
	movb	$1,%dl
	call	SYSUTILS_$$_FILEEXISTS$RAWBYTESTRING$BOOLEAN$$BOOLEAN
	testb	%al,%al
	je	.Lj336
	movq	U_$P$DISTENCWORKERCLI_$$_JOBS(%rip),%rdx
	movslq	-4(%rbp),%rax
	imulq	$152,%rax,%rax
	movq	24(%rdx,%rax),%rcx
	call	P$DISTENCWORKERCLI_$$_GETFILESIZE$ANSISTRING$$INT64
	cmpq	$10240,%rax
	jng	.Lj336
.Ll405:
	leaq	-32(%rbp),%rcx
	call	fpc_ansistr_decr_ref
	leaq	.Ld82(%rip),%rax
	movq	%rax,-56(%rbp)
	movq	U_$P$DISTENCWORKERCLI_$$_JOBS(%rip),%rdx
	movslq	-4(%rbp),%rax
	imulq	$152,%rax,%rax
	movq	24(%rdx,%rax),%rax
	movq	%rax,-48(%rbp)
	leaq	.Ld83(%rip),%rax
	movq	%rax,-40(%rbp)
	leaq	-56(%rbp),%rdx
	xorl	%r9d,%r9d
# Peephole Optimization: movq $2,%r8 -> movl $2,%r8d (immediate can be represented with just 32 bits)
	movl	$2,%r8d
	leaq	-32(%rbp),%rcx
	call	fpc_ansistr_concat_multi
	movq	-32(%rbp),%rdx
	leaq	U_$P$DISTENCWORKERCLI_$$_LOGFILE(%rip),%rcx
	call	P$DISTENCWORKERCLI_$$_LOG$TEXT$ANSISTRING
.Ll406:
	movq	U_$P$DISTENCWORKERCLI_$$_JOBS(%rip),%rdx
	movslq	-4(%rbp),%rax
	imulq	$152,%rax,%rax
	cmpb	$0,144(%rdx,%rax)
	jne	.Lj339
	leaq	-32(%rbp),%rcx
	call	fpc_ansistr_decr_ref
	movq	U_$P$DISTENCWORKERCLI_$$_JOBS(%rip),%rdx
	movslq	-4(%rbp),%rax
	imulq	$152,%rax,%rax
	movq	24(%rdx,%rax),%r8
	xorl	%r9d,%r9d
	leaq	.Ld84(%rip),%rdx
	leaq	-32(%rbp),%rcx
	call	fpc_ansistr_concat
	movq	-32(%rbp),%rdx
	leaq	U_$P$DISTENCWORKERCLI_$$_LOGFILE(%rip),%rcx
	call	P$DISTENCWORKERCLI_$$_LOG$TEXT$ANSISTRING
	movq	U_$P$DISTENCWORKERCLI_$$_JOBS(%rip),%rdx
	movslq	-4(%rbp),%rax
	imulq	$152,%rax,%rax
	leaq	(%rdx,%rax),%rcx
	call	P$DISTENCWORKERCLI_$$_STARTUPLOADPIECE$TJOB
.Lj339:
.Ll407:
	movq	U_$P$DISTENCWORKERCLI_$$_JOBS(%rip),%rdx
	movslq	-4(%rbp),%rax
	imulq	$152,%rax,%rax
	movq	96(%rdx,%rax),%rcx
	call	P$DISTENCWORKERCLI_$$_ISTASKFINISHED$TPROCESS$$BOOLEAN
	testb	%al,%al
	je	.Lj332
.Ll408:
	movq	U_$P$DISTENCWORKERCLI_$$_JOBS(%rip),%rdx
	movslq	-4(%rbp),%rax
	imulq	$152,%rax,%rax
	cmpq	$0,112(%rdx,%rax)
	jne	.Lj343
	movq	U_$P$DISTENCWORKERCLI_$$_JOBS(%rip),%rdx
	movslq	-4(%rbp),%rax
	imulq	$152,%rax,%rax
	leaq	(%rdx,%rax),%rcx
	call	P$DISTENCWORKERCLI_$$_GETUPLOADURL$TJOB
.Lj343:
.Ll409:
	movq	U_$P$DISTENCWORKERCLI_$$_JOBS(%rip),%rdx
	movslq	-4(%rbp),%rax
	imulq	$152,%rax,%rax
	cmpq	$0,112(%rdx,%rax)
	je	.Lj332
	movq	U_$P$DISTENCWORKERCLI_$$_JOBS(%rip),%rdx
	movslq	-4(%rbp),%rax
	imulq	$152,%rax,%rax
	leaq	(%rdx,%rax),%rcx
	call	P$DISTENCWORKERCLI_$$_SENDFINISHED$TJOB
	movl	-4(%rbp),%ecx
	call	P$DISTENCWORKERCLI_$$_DELETEJOB$LONGWORD
	jmp	.Lj332
	.p2align 4,,10
	.p2align 3
.Lj336:
.Ll410:
	movl	-4(%rbp),%ecx
	call	P$DISTENCWORKERCLI_$$_DELETEJOB$LONGWORD
.Lj332:
.Ll411:
	call	fpc_get_output
	movq	%rax,%rbx
	movq	-16(%rbp),%rcx
	leaq	-64(%rbp),%rdx
	movq	-16(%rbp),%rax
	movq	(%rax),%rax
	call	*272(%rax)
	movq	-64(%rbp),%r8
	movq	%rbx,%rdx
	xorl	%ecx,%ecx
	call	fpc_write_text_ansistr
	call	fpc_iocheck
	movq	%rbx,%rcx
	call	fpc_writeln_end
	call	fpc_iocheck
.Ll412:
	leaq	-16(%rbp),%rcx
	call	SYSUTILS_$$_FREEANDNIL$formal
.Ll413:
	cmpl	$0,-4(%rbp)
	jnle	.Lj328
.Lj327:
.Ll414:
	call	fpc_get_output
	movq	%rax,%rbx
	leaq	_$DISTENCWORKERCLI$_Ld85(%rip),%r8
	movq	%rbx,%rdx
	xorl	%ecx,%ecx
	call	fpc_write_text_shortstr
	call	fpc_iocheck
	movl	TC_$P$DISTENCWORKERCLI_$$_JOBCOUNT(%rip),%r8d
	movq	%rbx,%rdx
	xorl	%ecx,%ecx
	call	fpc_write_text_uint
	call	fpc_iocheck
	movq	%rbx,%rcx
	call	fpc_writeln_end
	call	fpc_iocheck
.Ll415:
	movq	U_$P$DISTENCWORKERCLI_$$_TCP(%rip),%rax
	movq	16(%rax),%rcx
	movq	U_$P$DISTENCWORKERCLI_$$_TCP(%rip),%rax
	movq	16(%rax),%rax
	movq	(%rax),%rax
	call	*448(%rax)
.Ll416:
	movl	$500,%ecx
	call	SYSUTILS_$$_SLEEP$LONGWORD
.Ll417:
	cmpl	$0,TC_$P$DISTENCWORKERCLI_$$_JOBCOUNT(%rip)
	jna	.Lj348
	call	SYSUTILS_$$_NOW$$TDATETIME
	movq	U_$P$DISTENCWORKERCLI_$$_JOBS(%rip),%rdx
	movl	TC_$P$DISTENCWORKERCLI_$$_JOBCOUNT(%rip),%eax
	imulq	$152,%rax,%rax
	movsd	-96(%rdx,%rax),%xmm1
	call	DATEUTILS_$$_SECONDSBETWEEN$TDATETIME$TDATETIME$$INT64
	subl	$3,%eax
	cmpl	$2,%eax
	jnc	.Lj348
	movq	U_$P$DISTENCWORKERCLI_$$_JOBS(%rip),%rdx
	movslq	-4(%rbp),%rax
	imulq	$152,%rax,%rax
	leaq	(%rdx,%rax),%rcx
	call	P$DISTENCWORKERCLI_$$_SENDPROGRESS$TJOB
.Lj348:
.Ll418:
	call	SYSUTILS_$$_NOW$$TDATETIME
	movsd	U_$P$DISTENCWORKERCLI_$$_OF_COOKIE_TIME(%rip),%xmm1
	call	DATEUTILS_$$_HOURSBETWEEN$TDATETIME$TDATETIME$$INT64
	movzwl	TC_$P$DISTENCWORKERCLI_$$_OF_COOKIE_INTERVAL(%rip),%edx
	cmpq	%rdx,%rax
	jng	.Lj353
.Ll419:
	leaq	U_$P$DISTENCWORKERCLI_$$_OF_COOKIE(%rip),%rbx
	movq	%rbx,%rcx
	call	fpc_ansistr_decr_ref
	movq	%rbx,%rcx
	call	P$DISTENCWORKERCLI_$$_GETOFCOOKIE$ANSISTRING$$BOOLEAN
	testb	%al,%al
	je	.Lj353
	call	SYSUTILS_$$_NOW$$TDATETIME
	movsd	%xmm0,U_$P$DISTENCWORKERCLI_$$_OF_COOKIE_TIME(%rip)
.Lj353:
.Ll420:
	cmpb	$0,-24(%rbp)
	je	.Lj305
.Lj302:
.Ll421:
	nop
.Lj301:
	movq	%rbp,%rcx
	call	P$DISTENCWORKERCLI$_$MAINLOOP_$$_fin$000000C8
.Ll422:
	movq	-88(%rbp),%rbx
	leaq	(%rbp),%rsp
	popq	%rbp
	ret
.seh_handler __FPC_specific_handler,@unwind
.seh_handlerdata
	.long	1
	.long	0
	.rva	.Lj300
	.rva	.Lj301
	.rva	P$DISTENCWORKERCLI$_$MAINLOOP_$$_fin$000000C8

.section .text.n_p$distencworkercli_$$_mainloop,"ax"
.seh_endproc
.Lc255:
.Lt43:
.Ll423:

.section .text.n_main,"ax"
	.balign 16,0x90
.globl	main
main:
.globl	PASCALMAIN
PASCALMAIN:
.Lc261:
.Lc262:
.seh_proc main
.Ll424:
	pushq	%rbp
.seh_pushreg %rbp
.Lc263:
.Lc264:
	movq	%rsp,%rbp
.Lc265:
	leaq	-32(%rsp),%rsp
.seh_stackalloc 32
.seh_endprologue
	call	fpc_initializeunits
.Ll425:
	call	P$DISTENCWORKERCLI_$$_INITS
# Peephole Optimization: movq $1,%rax -> movl $1,%eax (immediate can be represented with just 32 bits)
.Ll426:
	movl	$1,%eax
	leaq	VMT_$P$DISTENCWORKERCLI_$$_TLTCPTEST(%rip),%rcx
	movq	%rax,%rdx
	call	P$DISTENCWORKERCLI$_$TLTCPTEST_$__$$_CREATE$$TLTCPTEST
	movq	%rax,U_$P$DISTENCWORKERCLI_$$_TCP(%rip)
.Ll427:
	call	P$DISTENCWORKERCLI_$$_MAINLOOP
.Ll428:
	call	P$DISTENCWORKERCLI_$$_SAVEINI
.Ll429:
	movq	U_$P$DISTENCWORKERCLI_$$_TCP(%rip),%rcx
	call	SYSTEM$_$TOBJECT_$__$$_FREE
.Ll430:
	call	fpc_do_exit
	nop
	leaq	(%rbp),%rsp
	popq	%rbp
	ret
.seh_endproc
.Lc260:
.Lt1:
.Ll431:

.section .text.n_p$distencworkercli_$$_init_implicit$,"ax"
	.balign 16,0x90
.globl	P$DISTENCWORKERCLI_$$_init_implicit$
P$DISTENCWORKERCLI_$$_init_implicit$:
.globl	INIT$_$P$DISTENCWORKERCLI
INIT$_$P$DISTENCWORKERCLI:
.Lc267:
.seh_proc P$DISTENCWORKERCLI_$$_init_implicit$
	pushq	%rbp
.seh_pushreg %rbp
.Lc268:
.Lc269:
	movq	%rsp,%rbp
.Lc270:
	leaq	-32(%rsp),%rsp
.seh_stackalloc 32
.seh_endprologue
	nop
	leaq	(%rbp),%rsp
	popq	%rbp
	ret
.seh_endproc
.Lc266:
.Lt45:
.Ll432:

.section .text.n_p$distencworkercli_$$_finalize_implicit$,"ax"
	.balign 16,0x90
.globl	P$DISTENCWORKERCLI_$$_finalize_implicit$
P$DISTENCWORKERCLI_$$_finalize_implicit$:
.globl	FINALIZE$_$P$DISTENCWORKERCLI
FINALIZE$_$P$DISTENCWORKERCLI:
.globl	PASCALFINALIZE
PASCALFINALIZE:
.Lc272:
.seh_proc P$DISTENCWORKERCLI_$$_finalize_implicit$
	pushq	%rbp
.seh_pushreg %rbp
.Lc273:
.Lc274:
	movq	%rsp,%rbp
.Lc275:
	leaq	-32(%rsp),%rsp
.seh_stackalloc 32
.seh_endprologue
# Peephole Optimization: LeaMov2Lea done
	leaq	RTTI_$P$DISTENCWORKERCLI_$$_def000000D7(%rip),%rdx
	leaq	TC_$P$DISTENCWORKERCLI_$$_OF_URL(%rip),%rcx
	call	fpc_finalize
	leaq	U_$P$DISTENCWORKERCLI_$$_SERVERIP(%rip),%rcx
	call	fpc_ansistr_decr_ref
	leaq	U_$P$DISTENCWORKERCLI_$$_BASEPATH(%rip),%rcx
	call	fpc_ansistr_decr_ref
	leaq	U_$P$DISTENCWORKERCLI_$$_SETTINGSFILE(%rip),%rcx
	call	fpc_ansistr_decr_ref
	leaq	U_$P$DISTENCWORKERCLI_$$_CURLPATH(%rip),%rcx
	call	fpc_ansistr_decr_ref
	leaq	U_$P$DISTENCWORKERCLI_$$_ENCODERPATH(%rip),%rcx
	call	fpc_ansistr_decr_ref
	leaq	INIT_$P$DISTENCWORKERCLI_$$_def00000062(%rip),%rdx
	leaq	U_$P$DISTENCWORKERCLI_$$_JOBS(%rip),%rcx
	call	fpc_finalize
	leaq	U_$P$DISTENCWORKERCLI_$$_OF_COOKIE(%rip),%rcx
	call	fpc_ansistr_decr_ref
	leaq	TC_$P$DISTENCWORKERCLI_$$_OF_USER(%rip),%rcx
	call	fpc_ansistr_decr_ref
	leaq	TC_$P$DISTENCWORKERCLI_$$_OF_PASS(%rip),%rcx
	call	fpc_ansistr_decr_ref
	leaq	U_$P$DISTENCWORKERCLI_$$_WORKERNAME(%rip),%rcx
	call	fpc_ansistr_decr_ref
	leaq	TC_$P$DISTENCWORKERCLI_$$_LOGFILENAME(%rip),%rcx
	call	fpc_ansistr_decr_ref
	leaq	U_$P$DISTENCWORKERCLI_$$_LOGFILEPATH(%rip),%rcx
	call	fpc_ansistr_decr_ref
	leaq	U_$P$DISTENCWORKERCLI_$$_WORKDIR(%rip),%rcx
	call	fpc_ansistr_decr_ref
	leaq	U_$P$DISTENCWORKERCLI_$$_WORKDIRNAME(%rip),%rcx
	call	fpc_ansistr_decr_ref
	leaq	U_$P$DISTENCWORKERCLI_$$_OS(%rip),%rcx
	call	fpc_ansistr_decr_ref
	nop
	leaq	(%rbp),%rsp
	popq	%rbp
	ret
.seh_endproc
.Lc271:
.Lt46:
.Ll433:

.section .fpc.n_links,"aw"
	.quad	DEBUGSTART_$P$DISTENCWORKERCLI
	.quad	DEBUGEND_$P$DISTENCWORKERCLI
	.quad	DEBUGSTART_$LNET
	.quad	DEBUGEND_$LNET
	.quad	DEBUGSTART_$LNETBASE
	.quad	DEBUGEND_$LNETBASE
	.quad	DEBUGSTART_$NUMCPULIB
	.quad	DEBUGEND_$NUMCPULIB
	.quad	DEBUGSTART_$LEVENTS
	.quad	DEBUGEND_$LEVENTS
	.quad	DEBUGSTART_$LCOMMON
	.quad	DEBUGEND_$LCOMMON
	.quad	DEBUGSTART_$LWS2OVERRIDE
	.quad	DEBUGEND_$LWS2OVERRIDE
	.quad	DEBUGSTART_$LWS2TCPIP
	.quad	DEBUGEND_$LWS2TCPIP
	.quad	DEBUGSTART_$LFTP
	.quad	DEBUGEND_$LFTP
	.quad	DEBUGSTART_$LSMTP
	.quad	DEBUGEND_$LSMTP
	.quad	DEBUGSTART_$LTELNET
	.quad	DEBUGEND_$LTELNET
	.quad	DEBUGSTART_$LHTTP
	.quad	DEBUGEND_$LHTTP
	.quad	DEBUGSTART_$LWEBSERVER
	.quad	DEBUGEND_$LWEBSERVER
	.quad	DEBUGSTART_$LMIMEWRAPPER
	.quad	DEBUGEND_$LMIMEWRAPPER
	.quad	DEBUGSTART_$LHTTPUTIL
	.quad	DEBUGEND_$LHTTPUTIL
	.quad	DEBUGSTART_$LCONTROLSTACK
	.quad	DEBUGEND_$LCONTROLSTACK
	.quad	DEBUGSTART_$LMIMESTREAMS
	.quad	DEBUGEND_$LMIMESTREAMS
	.quad	DEBUGSTART_$LMIMETYPES
	.quad	DEBUGEND_$LMIMETYPES
	.quad	DEBUGSTART_$LPROCESS
	.quad	DEBUGEND_$LPROCESS
	.quad	DEBUGSTART_$LSPAWNFCGI
	.quad	DEBUGEND_$LSPAWNFCGI
	.quad	DEBUGSTART_$LSTRBUFFER
	.quad	DEBUGEND_$LSTRBUFFER
	.quad	DEBUGSTART_$LTIMER
	.quad	DEBUGEND_$LTIMER
	.quad	DEBUGSTART_$LNETSSL
	.quad	DEBUGEND_$LNETSSL
	.quad	DEBUGSTART_$LTHREADEVENTS
	.quad	DEBUGEND_$LTHREADEVENTS
	.quad	DEBUGSTART_$FASTCGI_BASE
	.quad	DEBUGEND_$FASTCGI_BASE
	.quad	DEBUGSTART_$LFASTCGI
	.quad	DEBUGEND_$LFASTCGI
# End asmlist al_procedures
# Begin asmlist al_globals

.section .bss,"aw"
	.balign 8
	.globl U_$P$DISTENCWORKERCLI_$$_TCP
U_$P$DISTENCWORKERCLI_$$_TCP:
	.zero 8

.section .bss,"aw"
	.balign 8
	.globl U_$P$DISTENCWORKERCLI_$$_SETTINGSINI
U_$P$DISTENCWORKERCLI_$$_SETTINGSINI:
	.zero 8

.section .bss,"aw"
	.balign 8
	.globl U_$P$DISTENCWORKERCLI_$$_SERVERIP
U_$P$DISTENCWORKERCLI_$$_SERVERIP:
	.zero 8

.section .bss,"aw"
	.balign 2
	.globl U_$P$DISTENCWORKERCLI_$$_SERVERPORT
U_$P$DISTENCWORKERCLI_$$_SERVERPORT:
	.zero 2

.section .bss,"aw"
	.balign 8
	.globl U_$P$DISTENCWORKERCLI_$$_BASEPATH
U_$P$DISTENCWORKERCLI_$$_BASEPATH:
	.zero 8

.section .bss,"aw"
	.balign 8
	.globl U_$P$DISTENCWORKERCLI_$$_SETTINGSFILE
U_$P$DISTENCWORKERCLI_$$_SETTINGSFILE:
	.zero 8

.section .bss,"aw"
	.balign 8
	.globl U_$P$DISTENCWORKERCLI_$$_CURLPATH
U_$P$DISTENCWORKERCLI_$$_CURLPATH:
	.zero 8

.section .bss,"aw"
	.balign 8
	.globl U_$P$DISTENCWORKERCLI_$$_ENCODERPATH
U_$P$DISTENCWORKERCLI_$$_ENCODERPATH:
	.zero 8

.section .bss,"aw"
	.balign 8
	.globl U_$P$DISTENCWORKERCLI_$$_JOBS
U_$P$DISTENCWORKERCLI_$$_JOBS:
	.zero 8

.section .bss,"aw"
	.globl U_$P$DISTENCWORKERCLI_$$_FQUIT
U_$P$DISTENCWORKERCLI_$$_FQUIT:
	.zero 1

.section .bss,"aw"
	.balign 8
	.globl U_$P$DISTENCWORKERCLI_$$_OF_COOKIE_TIME
U_$P$DISTENCWORKERCLI_$$_OF_COOKIE_TIME:
	.zero 8

.section .bss,"aw"
	.balign 8
	.globl U_$P$DISTENCWORKERCLI_$$_OF_COOKIE
U_$P$DISTENCWORKERCLI_$$_OF_COOKIE:
	.zero 8

.section .bss,"aw"
	.balign 8
	.globl U_$P$DISTENCWORKERCLI_$$_WORKERNAME
U_$P$DISTENCWORKERCLI_$$_WORKERNAME:
	.zero 8

.section .bss,"aw"
	.balign 4
	.globl U_$P$DISTENCWORKERCLI_$$_CORECOUNT
U_$P$DISTENCWORKERCLI_$$_CORECOUNT:
	.zero 4

.section .bss,"aw"
	.balign 8
	.globl U_$P$DISTENCWORKERCLI_$$_LOGFILEPATH
U_$P$DISTENCWORKERCLI_$$_LOGFILEPATH:
	.zero 8

.section .bss,"aw"
	.balign 8
	.globl U_$P$DISTENCWORKERCLI_$$_LOGFILE
U_$P$DISTENCWORKERCLI_$$_LOGFILE:
	.zero 896

.section .bss,"aw"
	.balign 8
	.globl U_$P$DISTENCWORKERCLI_$$_WORKDIR
U_$P$DISTENCWORKERCLI_$$_WORKDIR:
	.zero 8

.section .bss,"aw"
	.balign 8
	.globl U_$P$DISTENCWORKERCLI_$$_WORKDIRNAME
U_$P$DISTENCWORKERCLI_$$_WORKDIRNAME:
	.zero 8

.section .bss,"aw"
	.balign 8
	.globl U_$P$DISTENCWORKERCLI_$$_OS
U_$P$DISTENCWORKERCLI_$$_OS:
	.zero 8

.section .rodata.n_VMT_$P$DISTENCWORKERCLI_$$_TLTCPTEST,"aw"
	.balign 8
.globl	VMT_$P$DISTENCWORKERCLI_$$_TLTCPTEST
VMT_$P$DISTENCWORKERCLI_$$_TLTCPTEST:
	.quad	24,-24
	.quad	VMT_$SYSTEM_$$_TOBJECT$indirect
	.quad	.Ld86
	.quad	0,0,0
	.quad	RTTI_$P$DISTENCWORKERCLI_$$_TLTCPTEST
	.quad	0,0,0,0
	.quad	P$DISTENCWORKERCLI$_$TLTCPTEST_$__$$_DESTROY
	.quad	SYSTEM$_$TOBJECT_$__$$_NEWINSTANCE$$TOBJECT
	.quad	SYSTEM$_$TOBJECT_$__$$_FREEINSTANCE
	.quad	SYSTEM$_$TOBJECT_$__$$_SAFECALLEXCEPTION$TOBJECT$POINTER$$HRESULT
	.quad	SYSTEM$_$TOBJECT_$__$$_DEFAULTHANDLER$formal
	.quad	SYSTEM$_$TOBJECT_$__$$_AFTERCONSTRUCTION
	.quad	SYSTEM$_$TOBJECT_$__$$_BEFOREDESTRUCTION
	.quad	SYSTEM$_$TOBJECT_$__$$_DEFAULTHANDLERSTR$formal
	.quad	SYSTEM$_$TOBJECT_$__$$_DISPATCH$formal
	.quad	SYSTEM$_$TOBJECT_$__$$_DISPATCHSTR$formal
	.quad	SYSTEM$_$TOBJECT_$__$$_EQUALS$TOBJECT$$BOOLEAN
	.quad	SYSTEM$_$TOBJECT_$__$$_GETHASHCODE$$INT64
	.quad	SYSTEM$_$TOBJECT_$__$$_TOSTRING$$ANSISTRING
	.quad	0

.section .data.n_INITFINAL,"aw"
	.balign 8
.globl	INITFINAL
INITFINAL:
	.quad	25,0
	.quad	INIT$_$SYSTEM
	.quad	0,0
	.quad	FINALIZE$_$OBJPAS
	.quad	INIT$_$LNFODWRF
	.quad	FINALIZE$_$LNFODWRF
	.quad	INIT$_$FPINTRES
	.quad	0,0
	.quad	FINALIZE$_$WINDIRS
	.quad	INIT$_$SYSUTILS
	.quad	FINALIZE$_$SYSUTILS
	.quad	INIT$_$TYPINFO
	.quad	FINALIZE$_$TYPINFO
	.quad	INIT$_$CLASSES
	.quad	FINALIZE$_$CLASSES
	.quad	INIT$_$CRT
	.quad	FINALIZE$_$CRT
	.quad	INIT$_$SOCKETS
	.quad	FINALIZE$_$SOCKETS
	.quad	INIT$_$DYNLIBS
	.quad	0
	.quad	INIT$_$LWS2TCPIP
	.quad	FINALIZE$_$LWS2TCPIP
	.quad	INIT$_$LEVENTS
	.quad	FINALIZE$_$LEVENTS
	.quad	INIT$_$LTELNET
	.quad	FINALIZE$_$LTELNET
	.quad	INIT$_$LFTP
	.quad	FINALIZE$_$LFTP
	.quad	INIT$_$LSMTP
	.quad	FINALIZE$_$LSMTP
	.quad	INIT$_$OPENSSL
	.quad	FINALIZE$_$OPENSSL
	.quad	INIT$_$LNETSSL
	.quad	FINALIZE$_$LNETSSL
	.quad	INIT$_$LHTTPUTIL
	.quad	FINALIZE$_$LHTTPUTIL
	.quad	INIT$_$LHTTP
	.quad	FINALIZE$_$LHTTP
	.quad	INIT$_$LMIMETYPES
	.quad	FINALIZE$_$LMIMETYPES
	.quad	INIT$_$LWEBSERVER
	.quad	FINALIZE$_$LWEBSERVER
	.quad	INIT$_$DATEUTILS
	.quad	FINALIZE$_$DATEUTILS
	.quad	INIT$_$NUMCPULIB
	.quad	FINALIZE$_$NUMCPULIB
	.quad	INIT$_$P$DISTENCWORKERCLI
	.quad	FINALIZE$_$P$DISTENCWORKERCLI

.section .data.n_FPC_THREADVARTABLES,"aw"
	.balign 8
.globl	FPC_THREADVARTABLES
FPC_THREADVARTABLES:
	.long	2
	.quad	THREADVARLIST_$SYSTEM$indirect
	.quad	THREADVARLIST_$CLASSES$indirect

.section .rodata.n_FPC_RESOURCESTRINGTABLES,"aw"
	.balign 8
.globl	FPC_RESOURCESTRINGTABLES
FPC_RESOURCESTRINGTABLES:
	.quad	10
	.quad	RESSTR_$INIFILES_$$_START$indirect
	.quad	RESSTR_$INIFILES_$$_END$indirect
	.quad	RESSTR_$PROCESS_$$_START$indirect
	.quad	RESSTR_$PROCESS_$$_END$indirect
	.quad	RESSTR_$STRUTILS_$$_START$indirect
	.quad	RESSTR_$STRUTILS_$$_END$indirect
	.quad	RESSTR_$RTLCONSTS_$$_START$indirect
	.quad	RESSTR_$RTLCONSTS_$$_END$indirect
	.quad	RESSTR_$TYPINFO_$$_START$indirect
	.quad	RESSTR_$TYPINFO_$$_END$indirect
	.quad	RESSTR_$SYSCONST_$$_START$indirect
	.quad	RESSTR_$SYSCONST_$$_END$indirect
	.quad	RESSTR_$MATH_$$_START$indirect
	.quad	RESSTR_$MATH_$$_END$indirect
	.quad	RESSTR_$SYNCOBJS_$$_START$indirect
	.quad	RESSTR_$SYNCOBJS_$$_END$indirect
	.quad	RESSTR_$CONTNRS_$$_START$indirect
	.quad	RESSTR_$CONTNRS_$$_END$indirect
	.quad	RESSTR_$OPENSSL_$$_START$indirect
	.quad	RESSTR_$OPENSSL_$$_END$indirect

.section .data.n_FPC_WIDEINITTABLES,"aw"
	.balign 8
.globl	FPC_WIDEINITTABLES
FPC_WIDEINITTABLES:
	.quad	0

.section .data.n_FPC_RESSTRINITTABLES,"aw"
	.balign 8
.globl	FPC_RESSTRINITTABLES
FPC_RESSTRINITTABLES:
	.quad	0

.section .fpc.n_version,"aw"
	.balign 16
__fpc_ident:
	.ascii	"FPC 3.3.1 [2019/12/26] for x86_64 - Win64"

.section .data.n___heapsize,"aw"
	.balign 8
.globl	__heapsize
__heapsize:
	.quad	0

.section .data.n___fpc_valgrind,"aw"
	.balign 8
.globl	__fpc_valgrind
__fpc_valgrind:
	.byte	0
# End asmlist al_globals
# Begin asmlist al_const

.section .rodata.n_.Ld1,"a"
	.balign 8
.Ld1$strlab:
	.short	0,1
	.long	0
	.quad	-1,35
.Ld1:
	.ascii	"https://1fichier.com/login.pl?lg=en\000"

.section .rodata.n_.Ld1,"a"
	.balign 8
.Ld2$strlab:
	.short	0,1
	.long	0
	.quad	-1,56
.Ld2:
	.ascii	"https://api.1fichier.com/v1/upload/get_upload_serve"
	.ascii	"r.cgi\000"

.section .rodata.n_.Ld1,"a"
	.balign 8
.Ld3$strlab:
	.short	0,1
	.long	0
	.quad	-1,42
.Ld3:
	.ascii	"https://upload.1fichier.com/upload.cgi?id=\000"

.section .rodata.n_.Ld1,"a"
	.balign 8
.Ld4$strlab:
	.short	0,1
	.long	0
	.quad	-1,39
.Ld4:
	.ascii	"https://upload.1fichier.com/end.pl?xid=\000"

.section .rodata.n_.Ld1,"a"
	.balign 8
.Ld5$strlab:
	.short	0,1
	.long	0
	.quad	-1,51
.Ld5:
	.ascii	"https://1fichier.com/console/get_dirs_for_upload.pl"
	.ascii	"\000"

.section .rodata.n_.Ld6,"a"
	.balign 8
.Ld6$strlab:
	.short	0,1
	.long	0
	.quad	-1,16
.Ld6:
	.ascii	"voidrc@gmail.com\000"

.section .rodata.n_.Ld7,"a"
	.balign 8
.Ld7$strlab:
	.short	0,1
	.long	0
	.quad	-1,17
.Ld7:
	.ascii	"plsdonothackthis1\000"

.section .rodata.n_.Ld8,"a"
	.balign 8
.Ld8$strlab:
	.short	0,1
	.long	0
	.quad	-1,7
.Ld8:
	.ascii	"log.txt\000"

.section .rodata.n_VMT_$P$DISTENCWORKERCLI_$$_TLTCPTEST,"aw"
	.balign 8
.Ld86:
	.byte	9
	.ascii	"TLTCPTest"
# End asmlist al_const
# Begin asmlist al_typedconsts

.section .data.n_TC_$P$DISTENCWORKERCLI_$$_DC,"aw"
.globl	TC_$P$DISTENCWORKERCLI_$$_DC
TC_$P$DISTENCWORKERCLI_$$_DC:
	.byte	59

.section .data.n_TC_$P$DISTENCWORKERCLI_$$_OF_URL,"aw"
	.balign 8
.globl	TC_$P$DISTENCWORKERCLI_$$_OF_URL
TC_$P$DISTENCWORKERCLI_$$_OF_URL:
	.quad	.Ld1
	.quad	.Ld2
	.quad	.Ld3
	.quad	.Ld4
	.quad	.Ld5

.section .data.n_TC_$P$DISTENCWORKERCLI_$$_JOBCOUNT,"aw"
	.balign 4
.globl	TC_$P$DISTENCWORKERCLI_$$_JOBCOUNT
TC_$P$DISTENCWORKERCLI_$$_JOBCOUNT:
	.long	0

.section .data.n_TC_$P$DISTENCWORKERCLI_$$_STATUSINTERVALTIME,"aw"
	.balign 2
.globl	TC_$P$DISTENCWORKERCLI_$$_STATUSINTERVALTIME
TC_$P$DISTENCWORKERCLI_$$_STATUSINTERVALTIME:
	.short	30

.section .data.n_TC_$P$DISTENCWORKERCLI_$$_OF_COOKIE_INTERVAL,"aw"
	.balign 2
.globl	TC_$P$DISTENCWORKERCLI_$$_OF_COOKIE_INTERVAL
TC_$P$DISTENCWORKERCLI_$$_OF_COOKIE_INTERVAL:
	.short	20

.section .data.n_TC_$P$DISTENCWORKERCLI_$$_OF_USER,"aw"
	.balign 8
.globl	TC_$P$DISTENCWORKERCLI_$$_OF_USER
TC_$P$DISTENCWORKERCLI_$$_OF_USER:
	.quad	.Ld6

.section .data.n_TC_$P$DISTENCWORKERCLI_$$_OF_PASS,"aw"
	.balign 8
.globl	TC_$P$DISTENCWORKERCLI_$$_OF_PASS
TC_$P$DISTENCWORKERCLI_$$_OF_PASS:
	.quad	.Ld7

.section .data.n_TC_$P$DISTENCWORKERCLI_$$_LOGFILENAME,"aw"
	.balign 8
.globl	TC_$P$DISTENCWORKERCLI_$$_LOGFILENAME
TC_$P$DISTENCWORKERCLI_$$_LOGFILENAME:
	.quad	.Ld8

.section .rodata.n_.Ld9,"a"
	.balign 8
.Ld9$strlab:
	.short	0,1
	.long	0
	.quad	-1,1
.Ld9:
	.ascii	" \000"

.section .rodata.n_.Ld10,"a"
	.balign 8
.Ld10$strlab:
	.short	0,1
	.long	0
	.quad	-1,9
.Ld10:
	.ascii	"OF_COOKIE\000"

.section .rodata.n_.Ld11,"a"
	.balign 8
.Ld11$strlab:
	.short	0,1
	.long	0
	.quad	-1,6
.Ld11:
	.ascii	"UPLOAD\000"

.section .rodata.n_.Ld12,"a"
	.balign 8
.Ld12$strlab:
	.short	0,1
	.long	0
	.quad	-1,14
.Ld12:
	.ascii	"OF_COOKIE_TIME\000"

.section .rodata.n_.Ld13,"a"
	.balign 8
.Ld13$strlab:
	.short	0,1
	.long	0
	.quad	-1,9
.Ld13:
	.ascii	"localhost\000"

.section .rodata.n_.Ld14,"a"
	.balign 8
.Ld14$strlab:
	.short	0,1
	.long	0
	.quad	-1,8
.Ld14:
	.ascii	"ServerIP\000"

.section .rodata.n_.Ld15,"a"
	.balign 8
.Ld15$strlab:
	.short	0,1
	.long	0
	.quad	-1,6
.Ld15:
	.ascii	"SERVER\000"

.section .rodata.n_.Ld16,"a"
	.balign 8
.Ld16$strlab:
	.short	0,1
	.long	0
	.quad	-1,10
.Ld16:
	.ascii	"ServerPort\000"

.section .rodata.n_.Ld17,"a"
	.balign 8
.Ld17$strlab:
	.short	0,1
	.long	0
	.quad	-1,13
.Ld17:
	.ascii	"defaultworker\000"

.section .rodata.n_.Ld18,"a"
	.balign 8
.Ld18$strlab:
	.short	0,1
	.long	0
	.quad	-1,4
.Ld18:
	.ascii	"Name\000"

.section .rodata.n_.Ld19,"a"
	.balign 8
.Ld19$strlab:
	.short	0,1
	.long	0
	.quad	-1,6
.Ld19:
	.ascii	"WORKER\000"

.section .rodata.n_.Ld20,"a"
	.balign 8
.Ld20$strlab:
	.short	0,1
	.long	0
	.quad	-1,7
.Ld20:
	.ascii	"threads\000"

.section .rodata.n_.Ld21,"a"
	.balign 8
.Ld21$strlab:
	.short	0,1
	.long	0
	.quad	-1,4
.Ld21:
	.ascii	"work\000"

.section .rodata.n_.Ld22,"a"
	.balign 8
.Ld22$strlab:
	.short	0,1
	.long	0
	.quad	-1,7
.Ld22:
	.ascii	"workdir\000"

.section .rodata.n_.Ld23,"a"
	.balign 8
.Ld23$strlab:
	.short	0,1
	.long	0
	.quad	-1,7
.Ld23:
	.ascii	"OF_USER\000"

.section .rodata.n_.Ld24,"a"
	.balign 8
.Ld24$strlab:
	.short	0,1
	.long	0
	.quad	-1,7
.Ld24:
	.ascii	"OF_PASS\000"

.section .rodata.n_.Ld25,"a"
	.balign 8
.Ld25$strlab:
	.short	0,1
	.long	0
	.quad	-1,18
.Ld25:
	.ascii	"OF_COOKIE_INTERVAL\000"

.section .rodata.n_.Ld26,"a"
	.balign 8
.Ld26$strlab:
	.short	0,1
	.long	0
	.quad	-1,3
.Ld26:
	.ascii	"WIN\000"

.section .rodata.n_.Ld27,"a"
	.balign 8
.Ld27$strlab:
	.short	0,1
	.long	0
	.quad	-1,2
.Ld27:
	.ascii	"-v\000"

.section .rodata.n_.Ld28,"a"
	.balign 8
.Ld28$strlab:
	.short	0,1
	.long	0
	.quad	-1,2
.Ld28:
	.ascii	"-X\000"

.section .rodata.n_.Ld29,"a"
	.balign 8
.Ld29$strlab:
	.short	0,1
	.long	0
	.quad	-1,4
.Ld29:
	.ascii	"POST\000"

.section .rodata.n_.Ld30,"a"
	.balign 8
.Ld30$strlab:
	.short	0,1
	.long	0
	.quad	-1,2
.Ld30:
	.ascii	"-F\000"

.section .rodata.n_.Ld31,"a"
	.balign 8
.Ld31$strlab:
	.short	0,1
	.long	0
	.quad	-1,5
.Ld31:
	.ascii	"mail=\000"

.section .rodata.n_.Ld32,"a"
	.balign 8
.Ld32$strlab:
	.short	0,1
	.long	0
	.quad	-1,5
.Ld32:
	.ascii	"pass=\000"

.section .rodata.n_.Ld33,"a"
	.balign 8
.Ld33$strlab:
	.short	0,1
	.long	0
	.quad	-1,4
.Ld33:
	.ascii	"SID=\000"

.section .rodata.n_.Ld34,"a"
	.balign 8
.Ld34$strlab:
	.short	0,1
	.long	0
	.quad	-1,20
.Ld34:
	.ascii	"Got 1fichier cookie \000"

.section .rodata.n_.Ld35,"a"
	.balign 8
.Ld35$strlab:
	.short	0,1
	.long	0
	.quad	-1,12
.Ld35:
	.ascii	"settings.ini\000"

.section .rodata.n__$DISTENCWORKERCLI$_Ld36,"a"
	.balign 8
.globl	_$DISTENCWORKERCLI$_Ld36
_$DISTENCWORKERCLI$_Ld36:
	.ascii	"\011settings=\000"

.section .rodata.n__$DISTENCWORKERCLI$_Ld37,"a"
	.balign 8
.globl	_$DISTENCWORKERCLI$_Ld37
_$DISTENCWORKERCLI$_Ld37:
	.ascii	"\010 exists=\000"

.section .rodata.n_.Ld38,"a"
	.balign 8
.Ld38$strlab:
	.short	0,1
	.long	0
	.quad	-1,3
.Ld38:
	.ascii	"LIN\000"

.section .rodata.n_.Ld39,"a"
	.balign 8
.Ld39$strlab:
	.short	0,1
	.long	0
	.quad	-1,8
.Ld39:
	.ascii	"encoders\000"

.section .rodata.n_.Ld40,"a"
	.balign 8
.Ld40$strlab:
	.short	0,1
	.long	0
	.quad	-1,1
.Ld40:
	.ascii	"\\\000"

.section .rodata.n_.Ld41,"a"
	.balign 8
.Ld41$strlab:
	.short	0,1
	.long	0
	.quad	-1,32
.Ld41:
	.ascii	"ffmpeg-git-20191222-amd64-static\000"

.section .rodata.n_.Ld42,"a"
	.balign 8
.Ld42$strlab:
	.short	0,1
	.long	0
	.quad	-1,6
.Ld42:
	.ascii	"ffmpeg\000"

.section .rodata.n_.Ld43,"a"
	.balign 8
.Ld43$strlab:
	.short	0,1
	.long	0
	.quad	-1,9
.Ld43:
	.ascii	"/bin/curl\000"

.section .rodata.n_.Ld44,"a"
	.balign 8
.Ld44$strlab:
	.short	0,1
	.long	0
	.quad	-1,28
.Ld44:
	.ascii	"ffmpeg-4.3-96152-g4fa2d5a692\000"

.section .rodata.n_.Ld45,"a"
	.balign 8
.Ld45$strlab:
	.short	0,1
	.long	0
	.quad	-1,10
.Ld45:
	.ascii	"ffmpeg.exe\000"

.section .rodata.n_.Ld46,"a"
	.balign 8
.Ld46$strlab:
	.short	0,1
	.long	0
	.quad	-1,8
.Ld46:
	.ascii	"curl.exe\000"

.section .rodata.n__$DISTENCWORKERCLI$_Ld47,"a"
	.balign 8
.globl	_$DISTENCWORKERCLI$_Ld47
_$DISTENCWORKERCLI$_Ld47:
	.ascii	"\004bet=\000"

.section .rodata.n__$DISTENCWORKERCLI$_Ld48,"a"
	.balign 8
.globl	_$DISTENCWORKERCLI$_Ld48
_$DISTENCWORKERCLI$_Ld48:
	.ascii	"\004int=\000"

.section .rodata.n__$DISTENCWORKERCLI$_Ld49,"a"
	.balign 8
.globl	_$DISTENCWORKERCLI$_Ld49
_$DISTENCWORKERCLI$_Ld49:
	.ascii	"\003os=\000"

.section .rodata.n__$DISTENCWORKERCLI$_Ld50,"a"
	.balign 8
.globl	_$DISTENCWORKERCLI$_Ld50
_$DISTENCWORKERCLI$_Ld50:
	.ascii	"\006 cores\000"

.section .rodata.n__$DISTENCWORKERCLI$_Ld51,"a"
	.balign 8
.globl	_$DISTENCWORKERCLI$_Ld51
_$DISTENCWORKERCLI$_Ld51:
	.ascii	"YPress Esc to Exit, J to get one more job or 0 to k"
	.ascii	"ill all jobs (not working properly yet)\000"

.section .rodata.n_.Ld52,"a"
	.balign 8
.Ld52$strlab:
	.short	0,1
	.long	0
	.quad	-1,9
.Ld52:
	.ascii	"/bin/bash\000"

.section .rodata.n_.Ld53,"a"
	.balign 8
.Ld53$strlab:
	.short	0,1
	.long	0
	.quad	-1,2
.Ld53:
	.ascii	"-c\000"

.section .rodata.n_.Ld54,"a"
	.balign 8
.Ld54$strlab:
	.short	0,1
	.long	0
	.quad	-1,7
.Ld54:
	.ascii	"cmd.exe\000"

.section .rodata.n_.Ld55,"a"
	.balign 8
.Ld55$strlab:
	.short	0,1
	.long	0
	.quad	-1,2
.Ld55:
	.ascii	"/c\000"

.section .rodata.n_.Ld56,"a"
	.balign 8
.Ld56$strlab:
	.short	0,1
	.long	0
	.quad	-1,7
.Ld56:
	.ascii	"STOPJOB\000"

.section .rodata.n_.Ld57,"a"
	.balign 8
.Ld57$strlab:
	.short	0,1
	.long	0
	.quad	-1,7
.Ld57:
	.ascii	"TAKEJOB\000"

.section .rodata.n__$DISTENCWORKERCLI$_Ld58,"a"
	.balign 8
.globl	_$DISTENCWORKERCLI$_Ld58
_$DISTENCWORKERCLI$_Ld58:
	.ascii	"\012output is:\000"

.section .rodata.n_.Ld59,"a"
	.balign 8
.Ld59$strlab:
	.short	0,1
	.long	0
	.quad	-1,6
.Ld59:
	.ascii	"frame=\000"

.section .rodata.n__$DISTENCWORKERCLI$_Ld60,"a"
	.balign 8
.globl	_$DISTENCWORKERCLI$_Ld60
_$DISTENCWORKERCLI$_Ld60:
	.byte	0,0,0,0,0,0,89,64

.section .rodata.n_.Ld61,"a"
	.balign 8
.Ld61$strlab:
	.short	0,1
	.long	0
	.quad	-1,5
.Ld61:
	.ascii	"STATS\000"

.section .rodata.n__$DISTENCWORKERCLI$_Ld62,"a"
	.balign 8
.globl	_$DISTENCWORKERCLI$_Ld62
_$DISTENCWORKERCLI$_Ld62:
	.ascii	"\017Lost connection\000"

.section .rodata.n_.Ld63,"a"
	.balign 8
.Ld63$strlab:
	.short	0,1
	.long	0
	.quad	-1,2
.Ld63:
	.ascii	"-H\000"

.section .rodata.n_.Ld64,"a"
	.balign 8
.Ld64$strlab:
	.short	0,1
	.long	0
	.quad	-1,30
.Ld64:
	.ascii	"Content-Type: application/json\000"

.section .rodata.n_.Ld65,"a"
	.balign 8
.Ld65$strlab:
	.short	0,1
	.long	0
	.quad	-1,6
.Ld65:
	.ascii	"\"id\":\"\000"

.section .rodata.n_.Ld66,"a"
	.balign 8
.Ld66$strlab:
	.short	0,1
	.long	0
	.quad	-1,13
.Ld66:
	.ascii	"Got UploadId=\000"

.section .rodata.n_.Ld67,"a"
	.balign 8
.Ld67$strlab:
	.short	0,1
	.long	0
	.quad	-1,2
.Ld67:
	.ascii	"-b\000"

.section .rodata.n_.Ld68,"a"
	.balign 8
.Ld68$strlab:
	.short	0,1
	.long	0
	.quad	-1,9
.Ld68:
	.ascii	"file[]=@\"\000"

.section .rodata.n_.Ld69,"a"
	.balign 8
.Ld69$strlab:
	.short	0,1
	.long	0
	.quad	-1,1
.Ld69:
	.ascii	"\"\000"

.section .rodata.n_.Ld70,"a"
	.balign 8
.Ld70$strlab:
	.short	0,1
	.long	0
	.quad	-1,10
.Ld70:
	.ascii	";filename=\000"

.section .rodata.n_.Ld71,"a"
	.balign 8
.Ld71$strlab:
	.short	0,1
	.long	0
	.quad	-1,2
.Ld71:
	.ascii	"-i\000"

.section .rodata.n_.Ld72,"a"
	.balign 8
.Ld72$strlab:
	.short	0,1
	.long	0
	.quad	-1,7
.Ld72:
	.ascii	"JSON: 1\000"

.section .rodata.n_.Ld73,"a"
	.balign 8
.Ld73$strlab:
	.short	0,1
	.long	0
	.quad	-1,24
.Ld73:
	.ascii	"Accept: application/json\000"

.section .rodata.n_.Ld74,"a"
	.balign 8
.Ld74$strlab:
	.short	0,1
	.long	0
	.quad	-1,12
.Ld74:
	.ascii	"\"download\":\"\000"

.section .rodata.n__$DISTENCWORKERCLI$_Ld75,"a"
	.balign 8
.globl	_$DISTENCWORKERCLI$_Ld75
_$DISTENCWORKERCLI$_Ld75:
	.ascii	"\013Upload URL=\000"

.section .rodata.n_.Ld76,"a"
	.balign 8
.Ld76$strlab:
	.short	0,1
	.long	0
	.quad	-1,9
.Ld76:
	.ascii	"Uploaded \000"

.section .rodata.n_.Ld77,"a"
	.balign 8
.Ld77$strlab:
	.short	0,1
	.long	0
	.quad	-1,4
.Ld77:
	.ascii	" at \000"

.section .rodata.n__$DISTENCWORKERCLI$_Ld78,"a"
	.balign 8
.globl	_$DISTENCWORKERCLI$_Ld78
_$DISTENCWORKERCLI$_Ld78:
	.ascii	" we got to sendfinished procedure\000"

.section .rodata.n_.Ld79,"a"
	.balign 8
.Ld79$strlab:
	.short	0,1
	.long	0
	.quad	-1,6
.Ld79:
	.ascii	"GETJOB\000"

.section .rodata.n_TC_$P$DISTENCWORKERCLI$_$MAINLOOP_$$_defaulti,"aw"
	.balign 4
.globl	TC_$P$DISTENCWORKERCLI$_$MAINLOOP_$$_defaulti
TC_$P$DISTENCWORKERCLI$_$MAINLOOP_$$_defaulti:
	.long	-1

.section .rodata.n__$DISTENCWORKERCLI$_Ld80,"a"
	.balign 8
.globl	_$DISTENCWORKERCLI$_Ld80
_$DISTENCWORKERCLI$_Ld80:
	.ascii	"(We are disconnected... trying to connect\000"

.section .rodata.n__$DISTENCWORKERCLI$_Ld81,"a"
	.balign 8
.globl	_$DISTENCWORKERCLI$_Ld81
_$DISTENCWORKERCLI$_Ld81:
	.ascii	"!Connected, press 'escape' to quit\000"

.section .rodata.n_.Ld82,"a"
	.balign 8
.Ld82$strlab:
	.short	0,1
	.long	0
	.quad	-1,5
.Ld82:
	.ascii	"File \000"

.section .rodata.n_.Ld83,"a"
	.balign 8
.Ld83$strlab:
	.short	0,1
	.long	0
	.quad	-1,11
.Ld83:
	.ascii	" is encoded\000"

.section .rodata.n_.Ld84,"a"
	.balign 8
.Ld84$strlab:
	.short	0,1
	.long	0
	.quad	-1,13
.Ld84:
	.ascii	"trying to up \000"

.section .rodata.n__$DISTENCWORKERCLI$_Ld85,"a"
	.balign 8
.globl	_$DISTENCWORKERCLI$_Ld85
_$DISTENCWORKERCLI$_Ld85:
	.ascii	"\005JOBS=\000"
# End asmlist al_typedconsts
# Begin asmlist al_rtti

.section .rodata.n_INIT_$P$DISTENCWORKERCLI_$$_TJOB,"aw"
	.balign 8
.globl	INIT_$P$DISTENCWORKERCLI_$$_TJOB
INIT_$P$DISTENCWORKERCLI_$$_TJOB:
	.byte	13,4
	.ascii	"TJob"
	.quad	0,0
	.long	152
	.quad	0,0
	.long	12
	.quad	RTTI_$SYSTEM_$$_ANSISTRING$indirect
	.quad	0
	.quad	RTTI_$SYSTEM_$$_ANSISTRING$indirect
	.quad	8
	.quad	RTTI_$SYSTEM_$$_ANSISTRING$indirect
	.quad	16
	.quad	RTTI_$SYSTEM_$$_ANSISTRING$indirect
	.quad	24
	.quad	RTTI_$SYSTEM_$$_ANSISTRING$indirect
	.quad	32
	.quad	RTTI_$SYSTEM_$$_ANSISTRING$indirect
	.quad	40
	.quad	RTTI_$SYSTEM_$$_ANSISTRING$indirect
	.quad	48
	.quad	RTTI_$SYSTEM_$$_ANSISTRING$indirect
	.quad	80
	.quad	RTTI_$SYSTEM_$$_ANSISTRING$indirect
	.quad	104
	.quad	RTTI_$SYSTEM_$$_ANSISTRING$indirect
	.quad	112
	.quad	RTTI_$SYSTEM_$$_ANSISTRING$indirect
	.quad	120
	.quad	RTTI_$SYSTEM_$$_ANSISTRING$indirect
	.quad	128

.section .rodata.n_RTTI_$P$DISTENCWORKERCLI_$$_TLTCPTEST,"aw"
	.balign 8
.globl	RTTI_$P$DISTENCWORKERCLI_$$_TLTCPTEST
RTTI_$P$DISTENCWORKERCLI_$$_TLTCPTEST:
	.byte	15,9
	.ascii	"TLTCPTest"
	.quad	0
	.quad	VMT_$P$DISTENCWORKERCLI_$$_TLTCPTEST
	.quad	RTTI_$SYSTEM_$$_TOBJECT$indirect
	.short	0
	.byte	16
	.ascii	"distencworkercli"
	.short	0

.section .rodata.n_RTTI_$P$DISTENCWORKERCLI_$$_def000000D7,"aw"
	.balign 8
.globl	RTTI_$P$DISTENCWORKERCLI_$$_def000000D7
RTTI_$P$DISTENCWORKERCLI_$$_def000000D7:
	.byte	12,0
	.quad	0,40,5
	.quad	RTTI_$SYSTEM_$$_ANSISTRING$indirect
	.byte	1
	.quad	RTTI_$SYSTEM_$$_SHORTINT$indirect

.section .rodata.n_INIT_$P$DISTENCWORKERCLI_$$_def00000062,"aw"
	.balign 8
.globl	INIT_$P$DISTENCWORKERCLI_$$_def00000062
INIT_$P$DISTENCWORKERCLI_$$_def00000062:
	.byte	21,0
	.quad	0,152
	.quad	INIT_$P$DISTENCWORKERCLI_$$_TJOB$indirect
	.long	-1
	.quad	INIT_$P$DISTENCWORKERCLI_$$_TJOB$indirect
	.byte	16
	.ascii	"distencworkercli"

.section .rodata.n_RTTI_$P$DISTENCWORKERCLI_$$_def00000009,"aw"
	.balign 8
.globl	RTTI_$P$DISTENCWORKERCLI_$$_def00000009
RTTI_$P$DISTENCWORKERCLI_$$_def00000009:
	.byte	12,0
	.quad	0,24,3
	.quad	RTTI_$SYSTEM_$$_RAWBYTESTRING$indirect
	.byte	1
	.quad	RTTI_$SYSTEM_$$_LONGINT$indirect

.section .rodata.n_RTTI_$P$DISTENCWORKERCLI_$$_def00000037,"aw"
	.balign 8
.globl	RTTI_$P$DISTENCWORKERCLI_$$_def00000037
RTTI_$P$DISTENCWORKERCLI_$$_def00000037:
	.byte	12,10
	.ascii	"AnsiString"
	.quad	0,0,0
	.quad	RTTI_$SYSTEM_$$_ANSISTRING$indirect
	.byte	1
	.quad	RTTI_$SYSTEM_$$_INT64$indirect

.section .rodata.n_RTTI_$P$DISTENCWORKERCLI_$$_def00000043,"aw"
	.balign 8
.globl	RTTI_$P$DISTENCWORKERCLI_$$_def00000043
RTTI_$P$DISTENCWORKERCLI_$$_def00000043:
	.byte	12,0
	.quad	0,64,8
	.quad	RTTI_$SYSTEM_$$_ANSISTRING$indirect
	.byte	1
	.quad	RTTI_$SYSTEM_$$_LONGINT$indirect

.section .rodata.n_RTTI_$P$DISTENCWORKERCLI_$$_def0000005D,"aw"
	.balign 8
.globl	RTTI_$P$DISTENCWORKERCLI_$$_def0000005D
RTTI_$P$DISTENCWORKERCLI_$$_def0000005D:
	.byte	12,0
	.quad	0,48,6
	.quad	RTTI_$SYSTEM_$$_RAWBYTESTRING$indirect
	.byte	1
	.quad	RTTI_$SYSTEM_$$_LONGINT$indirect

.section .rodata.n_RTTI_$P$DISTENCWORKERCLI_$$_def0000005E,"aw"
	.balign 8
.globl	RTTI_$P$DISTENCWORKERCLI_$$_def0000005E
RTTI_$P$DISTENCWORKERCLI_$$_def0000005E:
	.byte	12,0
	.quad	0,48,6
	.quad	RTTI_$SYSTEM_$$_RAWBYTESTRING$indirect
	.byte	1
	.quad	RTTI_$SYSTEM_$$_LONGINT$indirect

.section .rodata.n_RTTI_$P$DISTENCWORKERCLI_$$_def0000005F,"aw"
	.balign 8
.globl	RTTI_$P$DISTENCWORKERCLI_$$_def0000005F
RTTI_$P$DISTENCWORKERCLI_$$_def0000005F:
	.byte	12,0
	.quad	0,24,3
	.quad	RTTI_$SYSTEM_$$_RAWBYTESTRING$indirect
	.byte	1
	.quad	RTTI_$SYSTEM_$$_LONGINT$indirect

.section .rodata.n_RTTI_$P$DISTENCWORKERCLI_$$_def0000008E,"aw"
	.balign 8
.globl	RTTI_$P$DISTENCWORKERCLI_$$_def0000008E
RTTI_$P$DISTENCWORKERCLI_$$_def0000008E:
	.byte	12,0
	.quad	0,96,12
	.quad	RTTI_$SYSTEM_$$_RAWBYTESTRING$indirect
	.byte	1
	.quad	RTTI_$SYSTEM_$$_LONGINT$indirect

.section .rodata.n_RTTI_$P$DISTENCWORKERCLI_$$_def00000097,"aw"
	.balign 8
.globl	RTTI_$P$DISTENCWORKERCLI_$$_def00000097
RTTI_$P$DISTENCWORKERCLI_$$_def00000097:
	.byte	12,0
	.quad	0,40,5
	.quad	RTTI_$SYSTEM_$$_ANSISTRING$indirect
	.byte	1
	.quad	RTTI_$SYSTEM_$$_LONGINT$indirect

.section .rodata.n_RTTI_$P$DISTENCWORKERCLI_$$_def000000A5,"aw"
	.balign 8
.globl	RTTI_$P$DISTENCWORKERCLI_$$_def000000A5
RTTI_$P$DISTENCWORKERCLI_$$_def000000A5:
	.byte	12,0
	.quad	0,48,6
	.quad	RTTI_$SYSTEM_$$_ANSISTRING$indirect
	.byte	1
	.quad	RTTI_$SYSTEM_$$_LONGINT$indirect

.section .rodata.n_RTTI_$P$DISTENCWORKERCLI_$$_def000000A9,"aw"
	.balign 8
.globl	RTTI_$P$DISTENCWORKERCLI_$$_def000000A9
RTTI_$P$DISTENCWORKERCLI_$$_def000000A9:
	.byte	12,0
	.quad	0,56,7
	.quad	RTTI_$SYSTEM_$$_RAWBYTESTRING$indirect
	.byte	1
	.quad	RTTI_$SYSTEM_$$_LONGINT$indirect

.section .rodata.n_RTTI_$P$DISTENCWORKERCLI_$$_def000000B5,"aw"
	.balign 8
.globl	RTTI_$P$DISTENCWORKERCLI_$$_def000000B5
RTTI_$P$DISTENCWORKERCLI_$$_def000000B5:
	.byte	12,0
	.quad	0,48,6
	.quad	RTTI_$SYSTEM_$$_ANSISTRING$indirect
	.byte	1
	.quad	RTTI_$SYSTEM_$$_LONGINT$indirect

.section .rodata.n_RTTI_$P$DISTENCWORKERCLI_$$_def000000BD,"aw"
	.balign 8
.globl	RTTI_$P$DISTENCWORKERCLI_$$_def000000BD
RTTI_$P$DISTENCWORKERCLI_$$_def000000BD:
	.byte	12,0
	.quad	0,32,4
	.quad	RTTI_$SYSTEM_$$_RAWBYTESTRING$indirect
	.byte	1
	.quad	RTTI_$SYSTEM_$$_LONGINT$indirect

.section .rodata.n_RTTI_$P$DISTENCWORKERCLI_$$_def000000C6,"aw"
	.balign 8
.globl	RTTI_$P$DISTENCWORKERCLI_$$_def000000C6
RTTI_$P$DISTENCWORKERCLI_$$_def000000C6:
	.byte	12,0
	.quad	0,32,4
	.quad	RTTI_$SYSTEM_$$_RAWBYTESTRING$indirect
	.byte	1
	.quad	RTTI_$SYSTEM_$$_LONGINT$indirect

.section .rodata.n_RTTI_$P$DISTENCWORKERCLI_$$_def000000D3,"aw"
	.balign 8
.globl	RTTI_$P$DISTENCWORKERCLI_$$_def000000D3
RTTI_$P$DISTENCWORKERCLI_$$_def000000D3:
	.byte	12,0
	.quad	0,24,3
	.quad	RTTI_$SYSTEM_$$_RAWBYTESTRING$indirect
	.byte	1
	.quad	RTTI_$SYSTEM_$$_LONGINT$indirect
# End asmlist al_rtti
# Begin asmlist al_indirectglobals

.section .rodata.n_VMT_$P$DISTENCWORKERCLI_$$_TLTCPTEST,"aw"
	.balign 8
.globl	VMT_$P$DISTENCWORKERCLI_$$_TLTCPTEST$indirect
VMT_$P$DISTENCWORKERCLI_$$_TLTCPTEST$indirect:
	.quad	VMT_$P$DISTENCWORKERCLI_$$_TLTCPTEST

.section .rodata.n_INIT_$P$DISTENCWORKERCLI_$$_TJOB,"aw"
	.balign 8
.globl	INIT_$P$DISTENCWORKERCLI_$$_TJOB$indirect
INIT_$P$DISTENCWORKERCLI_$$_TJOB$indirect:
	.quad	INIT_$P$DISTENCWORKERCLI_$$_TJOB

.section .rodata.n_RTTI_$P$DISTENCWORKERCLI_$$_TLTCPTEST,"aw"
	.balign 8
.globl	RTTI_$P$DISTENCWORKERCLI_$$_TLTCPTEST$indirect
RTTI_$P$DISTENCWORKERCLI_$$_TLTCPTEST$indirect:
	.quad	RTTI_$P$DISTENCWORKERCLI_$$_TLTCPTEST

.section .rodata.n_RTTI_$P$DISTENCWORKERCLI_$$_def000000D7,"aw"
	.balign 8
.globl	RTTI_$P$DISTENCWORKERCLI_$$_def000000D7$indirect
RTTI_$P$DISTENCWORKERCLI_$$_def000000D7$indirect:
	.quad	RTTI_$P$DISTENCWORKERCLI_$$_def000000D7

.section .rodata.n_INIT_$P$DISTENCWORKERCLI_$$_def00000062,"aw"
	.balign 8
.globl	INIT_$P$DISTENCWORKERCLI_$$_def00000062$indirect
INIT_$P$DISTENCWORKERCLI_$$_def00000062$indirect:
	.quad	INIT_$P$DISTENCWORKERCLI_$$_def00000062

.section .rodata.n_RTTI_$P$DISTENCWORKERCLI_$$_def00000009,"aw"
	.balign 8
.globl	RTTI_$P$DISTENCWORKERCLI_$$_def00000009$indirect
RTTI_$P$DISTENCWORKERCLI_$$_def00000009$indirect:
	.quad	RTTI_$P$DISTENCWORKERCLI_$$_def00000009

.section .rodata.n_RTTI_$P$DISTENCWORKERCLI_$$_def00000037,"aw"
	.balign 8
.globl	RTTI_$P$DISTENCWORKERCLI_$$_def00000037$indirect
RTTI_$P$DISTENCWORKERCLI_$$_def00000037$indirect:
	.quad	RTTI_$P$DISTENCWORKERCLI_$$_def00000037

.section .rodata.n_RTTI_$P$DISTENCWORKERCLI_$$_def00000043,"aw"
	.balign 8
.globl	RTTI_$P$DISTENCWORKERCLI_$$_def00000043$indirect
RTTI_$P$DISTENCWORKERCLI_$$_def00000043$indirect:
	.quad	RTTI_$P$DISTENCWORKERCLI_$$_def00000043

.section .rodata.n_RTTI_$P$DISTENCWORKERCLI_$$_def0000005D,"aw"
	.balign 8
.globl	RTTI_$P$DISTENCWORKERCLI_$$_def0000005D$indirect
RTTI_$P$DISTENCWORKERCLI_$$_def0000005D$indirect:
	.quad	RTTI_$P$DISTENCWORKERCLI_$$_def0000005D

.section .rodata.n_RTTI_$P$DISTENCWORKERCLI_$$_def0000005E,"aw"
	.balign 8
.globl	RTTI_$P$DISTENCWORKERCLI_$$_def0000005E$indirect
RTTI_$P$DISTENCWORKERCLI_$$_def0000005E$indirect:
	.quad	RTTI_$P$DISTENCWORKERCLI_$$_def0000005E

.section .rodata.n_RTTI_$P$DISTENCWORKERCLI_$$_def0000005F,"aw"
	.balign 8
.globl	RTTI_$P$DISTENCWORKERCLI_$$_def0000005F$indirect
RTTI_$P$DISTENCWORKERCLI_$$_def0000005F$indirect:
	.quad	RTTI_$P$DISTENCWORKERCLI_$$_def0000005F

.section .rodata.n_RTTI_$P$DISTENCWORKERCLI_$$_def0000008E,"aw"
	.balign 8
.globl	RTTI_$P$DISTENCWORKERCLI_$$_def0000008E$indirect
RTTI_$P$DISTENCWORKERCLI_$$_def0000008E$indirect:
	.quad	RTTI_$P$DISTENCWORKERCLI_$$_def0000008E

.section .rodata.n_RTTI_$P$DISTENCWORKERCLI_$$_def00000097,"aw"
	.balign 8
.globl	RTTI_$P$DISTENCWORKERCLI_$$_def00000097$indirect
RTTI_$P$DISTENCWORKERCLI_$$_def00000097$indirect:
	.quad	RTTI_$P$DISTENCWORKERCLI_$$_def00000097

.section .rodata.n_RTTI_$P$DISTENCWORKERCLI_$$_def000000A5,"aw"
	.balign 8
.globl	RTTI_$P$DISTENCWORKERCLI_$$_def000000A5$indirect
RTTI_$P$DISTENCWORKERCLI_$$_def000000A5$indirect:
	.quad	RTTI_$P$DISTENCWORKERCLI_$$_def000000A5

.section .rodata.n_RTTI_$P$DISTENCWORKERCLI_$$_def000000A9,"aw"
	.balign 8
.globl	RTTI_$P$DISTENCWORKERCLI_$$_def000000A9$indirect
RTTI_$P$DISTENCWORKERCLI_$$_def000000A9$indirect:
	.quad	RTTI_$P$DISTENCWORKERCLI_$$_def000000A9

.section .rodata.n_RTTI_$P$DISTENCWORKERCLI_$$_def000000B5,"aw"
	.balign 8
.globl	RTTI_$P$DISTENCWORKERCLI_$$_def000000B5$indirect
RTTI_$P$DISTENCWORKERCLI_$$_def000000B5$indirect:
	.quad	RTTI_$P$DISTENCWORKERCLI_$$_def000000B5

.section .rodata.n_RTTI_$P$DISTENCWORKERCLI_$$_def000000BD,"aw"
	.balign 8
.globl	RTTI_$P$DISTENCWORKERCLI_$$_def000000BD$indirect
RTTI_$P$DISTENCWORKERCLI_$$_def000000BD$indirect:
	.quad	RTTI_$P$DISTENCWORKERCLI_$$_def000000BD

.section .rodata.n_RTTI_$P$DISTENCWORKERCLI_$$_def000000C6,"aw"
	.balign 8
.globl	RTTI_$P$DISTENCWORKERCLI_$$_def000000C6$indirect
RTTI_$P$DISTENCWORKERCLI_$$_def000000C6$indirect:
	.quad	RTTI_$P$DISTENCWORKERCLI_$$_def000000C6

.section .rodata.n_RTTI_$P$DISTENCWORKERCLI_$$_def000000D3,"aw"
	.balign 8
.globl	RTTI_$P$DISTENCWORKERCLI_$$_def000000D3$indirect
RTTI_$P$DISTENCWORKERCLI_$$_def000000D3$indirect:
	.quad	RTTI_$P$DISTENCWORKERCLI_$$_def000000D3
# End asmlist al_indirectglobals
# Begin asmlist al_dwarf_frame

.section .debug_frame
.Lc276:
	.long	.Lc278-.Lc277
.Lc277:
	.long	-1
	.byte	1
	.byte	0
	.uleb128	1
	.sleb128	-4
	.byte	16
	.byte	12
	.uleb128	7
	.uleb128	8
	.byte	5
	.uleb128	16
	.uleb128	2
	.balign 4,0
.Lc278:
	.long	.Lc280-.Lc279
.Lc279:
	.secrel32	.Lc276
	.quad	.Lc2
	.quad	.Lc1-.Lc2
	.byte	4
	.long	.Lc3-.Lc2
	.byte	14
	.uleb128	16
	.byte	4
	.long	.Lc4-.Lc3
	.byte	5
	.uleb128	6
	.uleb128	4
	.byte	4
	.long	.Lc5-.Lc4
	.byte	13
	.uleb128	6
	.byte	4
	.long	.Lc6-.Lc5
	.byte	14
	.uleb128	8
	.balign 4,0
.Lc280:
	.long	.Lc283-.Lc282
.Lc282:
	.secrel32	.Lc276
	.quad	.Lc8
	.quad	.Lc7-.Lc8
	.byte	4
	.long	.Lc9-.Lc8
	.byte	14
	.uleb128	16
	.byte	4
	.long	.Lc10-.Lc9
	.byte	5
	.uleb128	6
	.uleb128	4
	.byte	4
	.long	.Lc11-.Lc10
	.byte	13
	.uleb128	6
	.balign 4,0
.Lc283:
	.long	.Lc286-.Lc285
.Lc285:
	.secrel32	.Lc276
	.quad	.Lc13
	.quad	.Lc12-.Lc13
	.byte	4
	.long	.Lc14-.Lc13
	.byte	14
	.uleb128	16
	.byte	4
	.long	.Lc15-.Lc14
	.byte	5
	.uleb128	6
	.uleb128	4
	.byte	4
	.long	.Lc16-.Lc15
	.byte	13
	.uleb128	6
	.byte	4
	.long	.Lc17-.Lc16
	.byte	14
	.uleb128	8
	.balign 4,0
.Lc286:
	.long	.Lc289-.Lc288
.Lc288:
	.secrel32	.Lc276
	.quad	.Lc19
	.quad	.Lc18-.Lc19
	.byte	4
	.long	.Lc20-.Lc19
	.byte	14
	.uleb128	16
	.byte	4
	.long	.Lc21-.Lc20
	.byte	5
	.uleb128	6
	.uleb128	4
	.byte	4
	.long	.Lc22-.Lc21
	.byte	13
	.uleb128	6
	.balign 4,0
.Lc289:
	.long	.Lc292-.Lc291
.Lc291:
	.secrel32	.Lc276
	.quad	.Lc24
	.quad	.Lc23-.Lc24
	.byte	4
	.long	.Lc25-.Lc24
	.byte	14
	.uleb128	16
	.byte	4
	.long	.Lc26-.Lc25
	.byte	5
	.uleb128	6
	.uleb128	4
	.byte	4
	.long	.Lc27-.Lc26
	.byte	13
	.uleb128	6
	.byte	4
	.long	.Lc28-.Lc27
	.byte	14
	.uleb128	8
	.balign 4,0
.Lc292:
	.long	.Lc295-.Lc294
.Lc294:
	.secrel32	.Lc276
	.quad	.Lc30
	.quad	.Lc29-.Lc30
	.byte	4
	.long	.Lc31-.Lc30
	.byte	14
	.uleb128	16
	.byte	4
	.long	.Lc32-.Lc31
	.byte	5
	.uleb128	6
	.uleb128	4
	.byte	4
	.long	.Lc33-.Lc32
	.byte	13
	.uleb128	6
	.byte	4
	.long	.Lc34-.Lc33
	.byte	14
	.uleb128	8
	.balign 4,0
.Lc295:
	.long	.Lc298-.Lc297
.Lc297:
	.secrel32	.Lc276
	.quad	.Lc36
	.quad	.Lc35-.Lc36
	.byte	4
	.long	.Lc37-.Lc36
	.byte	14
	.uleb128	16
	.byte	4
	.long	.Lc38-.Lc37
	.byte	5
	.uleb128	6
	.uleb128	4
	.byte	4
	.long	.Lc39-.Lc38
	.byte	13
	.uleb128	6
	.balign 4,0
.Lc298:
	.long	.Lc301-.Lc300
.Lc300:
	.secrel32	.Lc276
	.quad	.Lc41
	.quad	.Lc40-.Lc41
	.byte	4
	.long	.Lc42-.Lc41
	.byte	14
	.uleb128	16
	.byte	4
	.long	.Lc43-.Lc42
	.byte	5
	.uleb128	6
	.uleb128	4
	.byte	4
	.long	.Lc44-.Lc43
	.byte	13
	.uleb128	6
	.balign 4,0
.Lc301:
	.long	.Lc304-.Lc303
.Lc303:
	.secrel32	.Lc276
	.quad	.Lc46
	.quad	.Lc45-.Lc46
	.byte	4
	.long	.Lc47-.Lc46
	.byte	14
	.uleb128	16
	.byte	4
	.long	.Lc48-.Lc47
	.byte	5
	.uleb128	6
	.uleb128	4
	.byte	4
	.long	.Lc49-.Lc48
	.byte	13
	.uleb128	6
	.balign 4,0
.Lc304:
	.long	.Lc307-.Lc306
.Lc306:
	.secrel32	.Lc276
	.quad	.Lc51
	.quad	.Lc50-.Lc51
	.byte	4
	.long	.Lc52-.Lc51
	.byte	14
	.uleb128	16
	.byte	4
	.long	.Lc53-.Lc52
	.byte	5
	.uleb128	6
	.uleb128	4
	.byte	4
	.long	.Lc54-.Lc53
	.byte	13
	.uleb128	6
	.byte	4
	.long	.Lc55-.Lc54
	.byte	14
	.uleb128	8
	.balign 4,0
.Lc307:
	.long	.Lc310-.Lc309
.Lc309:
	.secrel32	.Lc276
	.quad	.Lc57
	.quad	.Lc56-.Lc57
	.byte	4
	.long	.Lc58-.Lc57
	.byte	14
	.uleb128	16
	.byte	4
	.long	.Lc59-.Lc58
	.byte	5
	.uleb128	6
	.uleb128	4
	.byte	4
	.long	.Lc60-.Lc59
	.byte	13
	.uleb128	6
	.byte	4
	.long	.Lc61-.Lc60
	.byte	14
	.uleb128	8
	.balign 4,0
.Lc310:
	.long	.Lc313-.Lc312
.Lc312:
	.secrel32	.Lc276
	.quad	.Lc63
	.quad	.Lc62-.Lc63
	.byte	4
	.long	.Lc64-.Lc63
	.byte	14
	.uleb128	16
	.byte	4
	.long	.Lc65-.Lc64
	.byte	5
	.uleb128	6
	.uleb128	4
	.byte	4
	.long	.Lc66-.Lc65
	.byte	13
	.uleb128	6
	.balign 4,0
.Lc313:
	.long	.Lc316-.Lc315
.Lc315:
	.secrel32	.Lc276
	.quad	.Lc68
	.quad	.Lc67-.Lc68
	.byte	4
	.long	.Lc69-.Lc68
	.byte	14
	.uleb128	16
	.byte	4
	.long	.Lc70-.Lc69
	.byte	5
	.uleb128	6
	.uleb128	4
	.byte	4
	.long	.Lc71-.Lc70
	.byte	13
	.uleb128	6
	.byte	4
	.long	.Lc72-.Lc71
	.byte	14
	.uleb128	8
	.balign 4,0
.Lc316:
	.long	.Lc319-.Lc318
.Lc318:
	.secrel32	.Lc276
	.quad	.Lc74
	.quad	.Lc73-.Lc74
	.byte	4
	.long	.Lc75-.Lc74
	.byte	14
	.uleb128	16
	.byte	4
	.long	.Lc76-.Lc75
	.byte	5
	.uleb128	6
	.uleb128	4
	.byte	4
	.long	.Lc77-.Lc76
	.byte	13
	.uleb128	6
	.balign 4,0
.Lc319:
	.long	.Lc322-.Lc321
.Lc321:
	.secrel32	.Lc276
	.quad	.Lc79
	.quad	.Lc78-.Lc79
	.byte	4
	.long	.Lc80-.Lc79
	.byte	14
	.uleb128	16
	.byte	4
	.long	.Lc81-.Lc80
	.byte	5
	.uleb128	6
	.uleb128	4
	.byte	4
	.long	.Lc82-.Lc81
	.byte	13
	.uleb128	6
	.byte	4
	.long	.Lc83-.Lc82
	.byte	14
	.uleb128	8
	.balign 4,0
.Lc322:
	.long	.Lc325-.Lc324
.Lc324:
	.secrel32	.Lc276
	.quad	.Lc85
	.quad	.Lc84-.Lc85
	.byte	4
	.long	.Lc86-.Lc85
	.byte	14
	.uleb128	16
	.byte	4
	.long	.Lc87-.Lc86
	.byte	5
	.uleb128	6
	.uleb128	4
	.byte	4
	.long	.Lc88-.Lc87
	.byte	13
	.uleb128	6
	.balign 4,0
.Lc325:
	.long	.Lc328-.Lc327
.Lc327:
	.secrel32	.Lc276
	.quad	.Lc90
	.quad	.Lc89-.Lc90
	.byte	4
	.long	.Lc91-.Lc90
	.byte	14
	.uleb128	16
	.byte	4
	.long	.Lc92-.Lc91
	.byte	5
	.uleb128	6
	.uleb128	4
	.byte	4
	.long	.Lc93-.Lc92
	.byte	13
	.uleb128	6
	.byte	4
	.long	.Lc94-.Lc93
	.byte	14
	.uleb128	8
	.balign 4,0
.Lc328:
	.long	.Lc331-.Lc330
.Lc330:
	.secrel32	.Lc276
	.quad	.Lc96
	.quad	.Lc95-.Lc96
	.byte	4
	.long	.Lc97-.Lc96
	.byte	14
	.uleb128	16
	.byte	4
	.long	.Lc98-.Lc97
	.byte	5
	.uleb128	6
	.uleb128	4
	.byte	4
	.long	.Lc99-.Lc98
	.byte	13
	.uleb128	6
	.balign 4,0
.Lc331:
	.long	.Lc334-.Lc333
.Lc333:
	.secrel32	.Lc276
	.quad	.Lc101
	.quad	.Lc100-.Lc101
	.byte	4
	.long	.Lc102-.Lc101
	.byte	14
	.uleb128	16
	.byte	4
	.long	.Lc103-.Lc102
	.byte	5
	.uleb128	6
	.uleb128	4
	.byte	4
	.long	.Lc104-.Lc103
	.byte	13
	.uleb128	6
	.balign 4,0
.Lc334:
	.long	.Lc337-.Lc336
.Lc336:
	.secrel32	.Lc276
	.quad	.Lc106
	.quad	.Lc105-.Lc106
	.byte	4
	.long	.Lc107-.Lc106
	.byte	14
	.uleb128	16
	.byte	4
	.long	.Lc108-.Lc107
	.byte	5
	.uleb128	6
	.uleb128	4
	.byte	4
	.long	.Lc109-.Lc108
	.byte	13
	.uleb128	6
	.byte	4
	.long	.Lc110-.Lc109
	.byte	14
	.uleb128	8
	.balign 4,0
.Lc337:
	.long	.Lc340-.Lc339
.Lc339:
	.secrel32	.Lc276
	.quad	.Lc112
	.quad	.Lc111-.Lc112
	.byte	4
	.long	.Lc113-.Lc112
	.byte	14
	.uleb128	16
	.byte	4
	.long	.Lc114-.Lc113
	.byte	5
	.uleb128	6
	.uleb128	4
	.byte	4
	.long	.Lc115-.Lc114
	.byte	13
	.uleb128	6
	.balign 4,0
.Lc340:
	.long	.Lc343-.Lc342
.Lc342:
	.secrel32	.Lc276
	.quad	.Lc117
	.quad	.Lc116-.Lc117
	.byte	4
	.long	.Lc118-.Lc117
	.byte	14
	.uleb128	16
	.byte	4
	.long	.Lc119-.Lc118
	.byte	5
	.uleb128	6
	.uleb128	4
	.byte	4
	.long	.Lc120-.Lc119
	.byte	13
	.uleb128	6
	.byte	4
	.long	.Lc121-.Lc120
	.byte	14
	.uleb128	8
	.balign 4,0
.Lc343:
	.long	.Lc346-.Lc345
.Lc345:
	.secrel32	.Lc276
	.quad	.Lc123
	.quad	.Lc122-.Lc123
	.byte	4
	.long	.Lc124-.Lc123
	.byte	14
	.uleb128	16
	.byte	4
	.long	.Lc125-.Lc124
	.byte	5
	.uleb128	6
	.uleb128	4
	.byte	4
	.long	.Lc126-.Lc125
	.byte	13
	.uleb128	6
	.balign 4,0
.Lc346:
	.long	.Lc349-.Lc348
.Lc348:
	.secrel32	.Lc276
	.quad	.Lc128
	.quad	.Lc127-.Lc128
	.byte	4
	.long	.Lc129-.Lc128
	.byte	14
	.uleb128	16
	.byte	4
	.long	.Lc130-.Lc129
	.byte	5
	.uleb128	6
	.uleb128	4
	.byte	4
	.long	.Lc131-.Lc130
	.byte	13
	.uleb128	6
	.byte	4
	.long	.Lc132-.Lc131
	.byte	14
	.uleb128	8
	.balign 4,0
.Lc349:
	.long	.Lc352-.Lc351
.Lc351:
	.secrel32	.Lc276
	.quad	.Lc134
	.quad	.Lc133-.Lc134
	.byte	4
	.long	.Lc135-.Lc134
	.byte	14
	.uleb128	16
	.byte	4
	.long	.Lc136-.Lc135
	.byte	5
	.uleb128	6
	.uleb128	4
	.byte	4
	.long	.Lc137-.Lc136
	.byte	13
	.uleb128	6
	.balign 4,0
.Lc352:
	.long	.Lc355-.Lc354
.Lc354:
	.secrel32	.Lc276
	.quad	.Lc139
	.quad	.Lc138-.Lc139
	.byte	4
	.long	.Lc140-.Lc139
	.byte	14
	.uleb128	16
	.byte	4
	.long	.Lc141-.Lc140
	.byte	5
	.uleb128	6
	.uleb128	4
	.byte	4
	.long	.Lc142-.Lc141
	.byte	13
	.uleb128	6
	.balign 4,0
.Lc355:
	.long	.Lc358-.Lc357
.Lc357:
	.secrel32	.Lc276
	.quad	.Lc144
	.quad	.Lc143-.Lc144
	.byte	4
	.long	.Lc145-.Lc144
	.byte	14
	.uleb128	16
	.byte	4
	.long	.Lc146-.Lc145
	.byte	5
	.uleb128	6
	.uleb128	4
	.byte	4
	.long	.Lc147-.Lc146
	.byte	13
	.uleb128	6
	.balign 4,0
.Lc358:
	.long	.Lc361-.Lc360
.Lc360:
	.secrel32	.Lc276
	.quad	.Lc149
	.quad	.Lc148-.Lc149
	.byte	4
	.long	.Lc150-.Lc149
	.byte	14
	.uleb128	16
	.byte	4
	.long	.Lc151-.Lc150
	.byte	5
	.uleb128	6
	.uleb128	4
	.byte	4
	.long	.Lc152-.Lc151
	.byte	13
	.uleb128	6
	.balign 4,0
.Lc361:
	.long	.Lc364-.Lc363
.Lc363:
	.secrel32	.Lc276
	.quad	.Lc154
	.quad	.Lc153-.Lc154
	.byte	4
	.long	.Lc155-.Lc154
	.byte	14
	.uleb128	16
	.byte	4
	.long	.Lc156-.Lc155
	.byte	5
	.uleb128	6
	.uleb128	4
	.byte	4
	.long	.Lc157-.Lc156
	.byte	13
	.uleb128	6
	.balign 4,0
.Lc364:
	.long	.Lc367-.Lc366
.Lc366:
	.secrel32	.Lc276
	.quad	.Lc159
	.quad	.Lc158-.Lc159
	.byte	4
	.long	.Lc160-.Lc159
	.byte	14
	.uleb128	16
	.byte	4
	.long	.Lc161-.Lc160
	.byte	5
	.uleb128	6
	.uleb128	4
	.byte	4
	.long	.Lc162-.Lc161
	.byte	13
	.uleb128	6
	.byte	4
	.long	.Lc163-.Lc162
	.byte	14
	.uleb128	8
	.balign 4,0
.Lc367:
	.long	.Lc370-.Lc369
.Lc369:
	.secrel32	.Lc276
	.quad	.Lc165
	.quad	.Lc164-.Lc165
	.byte	4
	.long	.Lc166-.Lc165
	.byte	14
	.uleb128	16
	.byte	4
	.long	.Lc167-.Lc166
	.byte	5
	.uleb128	6
	.uleb128	4
	.byte	4
	.long	.Lc168-.Lc167
	.byte	13
	.uleb128	6
	.balign 4,0
.Lc370:
	.long	.Lc373-.Lc372
.Lc372:
	.secrel32	.Lc276
	.quad	.Lc170
	.quad	.Lc169-.Lc170
	.byte	4
	.long	.Lc171-.Lc170
	.byte	14
	.uleb128	16
	.byte	4
	.long	.Lc172-.Lc171
	.byte	5
	.uleb128	6
	.uleb128	4
	.byte	4
	.long	.Lc173-.Lc172
	.byte	13
	.uleb128	6
	.byte	4
	.long	.Lc174-.Lc173
	.byte	14
	.uleb128	8
	.balign 4,0
.Lc373:
	.long	.Lc376-.Lc375
.Lc375:
	.secrel32	.Lc276
	.quad	.Lc176
	.quad	.Lc175-.Lc176
	.byte	4
	.long	.Lc177-.Lc176
	.byte	14
	.uleb128	16
	.byte	4
	.long	.Lc178-.Lc177
	.byte	5
	.uleb128	6
	.uleb128	4
	.byte	4
	.long	.Lc179-.Lc178
	.byte	13
	.uleb128	6
	.balign 4,0
.Lc376:
	.long	.Lc379-.Lc378
.Lc378:
	.secrel32	.Lc276
	.quad	.Lc181
	.quad	.Lc180-.Lc181
	.byte	4
	.long	.Lc182-.Lc181
	.byte	14
	.uleb128	16
	.byte	4
	.long	.Lc183-.Lc182
	.byte	5
	.uleb128	6
	.uleb128	4
	.byte	4
	.long	.Lc184-.Lc183
	.byte	13
	.uleb128	6
	.balign 4,0
.Lc379:
	.long	.Lc382-.Lc381
.Lc381:
	.secrel32	.Lc276
	.quad	.Lc186
	.quad	.Lc185-.Lc186
	.byte	4
	.long	.Lc187-.Lc186
	.byte	14
	.uleb128	16
	.byte	4
	.long	.Lc188-.Lc187
	.byte	5
	.uleb128	6
	.uleb128	4
	.byte	4
	.long	.Lc189-.Lc188
	.byte	13
	.uleb128	6
	.byte	4
	.long	.Lc190-.Lc189
	.byte	14
	.uleb128	8
	.balign 4,0
.Lc382:
	.long	.Lc385-.Lc384
.Lc384:
	.secrel32	.Lc276
	.quad	.Lc192
	.quad	.Lc191-.Lc192
	.byte	4
	.long	.Lc193-.Lc192
	.byte	14
	.uleb128	16
	.byte	4
	.long	.Lc194-.Lc193
	.byte	5
	.uleb128	6
	.uleb128	4
	.byte	4
	.long	.Lc195-.Lc194
	.byte	13
	.uleb128	6
	.balign 4,0
.Lc385:
	.long	.Lc388-.Lc387
.Lc387:
	.secrel32	.Lc276
	.quad	.Lc197
	.quad	.Lc196-.Lc197
	.byte	4
	.long	.Lc198-.Lc197
	.byte	14
	.uleb128	16
	.byte	4
	.long	.Lc199-.Lc198
	.byte	5
	.uleb128	6
	.uleb128	4
	.byte	4
	.long	.Lc200-.Lc199
	.byte	13
	.uleb128	6
	.balign 4,0
.Lc388:
	.long	.Lc391-.Lc390
.Lc390:
	.secrel32	.Lc276
	.quad	.Lc202
	.quad	.Lc201-.Lc202
	.byte	4
	.long	.Lc203-.Lc202
	.byte	14
	.uleb128	16
	.byte	4
	.long	.Lc204-.Lc203
	.byte	5
	.uleb128	6
	.uleb128	4
	.byte	4
	.long	.Lc205-.Lc204
	.byte	13
	.uleb128	6
	.balign 4,0
.Lc391:
	.long	.Lc394-.Lc393
.Lc393:
	.secrel32	.Lc276
	.quad	.Lc207
	.quad	.Lc206-.Lc207
	.byte	4
	.long	.Lc208-.Lc207
	.byte	14
	.uleb128	16
	.byte	4
	.long	.Lc209-.Lc208
	.byte	5
	.uleb128	6
	.uleb128	4
	.byte	4
	.long	.Lc210-.Lc209
	.byte	13
	.uleb128	6
	.byte	4
	.long	.Lc211-.Lc210
	.byte	14
	.uleb128	8
	.balign 4,0
.Lc394:
	.long	.Lc397-.Lc396
.Lc396:
	.secrel32	.Lc276
	.quad	.Lc213
	.quad	.Lc212-.Lc213
	.byte	4
	.long	.Lc214-.Lc213
	.byte	14
	.uleb128	16
	.byte	4
	.long	.Lc215-.Lc214
	.byte	5
	.uleb128	6
	.uleb128	4
	.byte	4
	.long	.Lc216-.Lc215
	.byte	13
	.uleb128	6
	.balign 4,0
.Lc397:
	.long	.Lc400-.Lc399
.Lc399:
	.secrel32	.Lc276
	.quad	.Lc218
	.quad	.Lc217-.Lc218
	.byte	4
	.long	.Lc219-.Lc218
	.byte	14
	.uleb128	16
	.byte	4
	.long	.Lc220-.Lc219
	.byte	5
	.uleb128	6
	.uleb128	4
	.byte	4
	.long	.Lc221-.Lc220
	.byte	13
	.uleb128	6
	.balign 4,0
.Lc400:
	.long	.Lc403-.Lc402
.Lc402:
	.secrel32	.Lc276
	.quad	.Lc223
	.quad	.Lc222-.Lc223
	.byte	4
	.long	.Lc224-.Lc223
	.byte	14
	.uleb128	16
	.byte	4
	.long	.Lc225-.Lc224
	.byte	5
	.uleb128	6
	.uleb128	4
	.byte	4
	.long	.Lc226-.Lc225
	.byte	13
	.uleb128	6
	.byte	4
	.long	.Lc227-.Lc226
	.byte	14
	.uleb128	8
	.balign 4,0
.Lc403:
	.long	.Lc406-.Lc405
.Lc405:
	.secrel32	.Lc276
	.quad	.Lc229
	.quad	.Lc228-.Lc229
	.byte	4
	.long	.Lc230-.Lc229
	.byte	14
	.uleb128	16
	.byte	4
	.long	.Lc231-.Lc230
	.byte	5
	.uleb128	6
	.uleb128	4
	.byte	4
	.long	.Lc232-.Lc231
	.byte	13
	.uleb128	6
	.balign 4,0
.Lc406:
	.long	.Lc409-.Lc408
.Lc408:
	.secrel32	.Lc276
	.quad	.Lc234
	.quad	.Lc233-.Lc234
	.byte	4
	.long	.Lc235-.Lc234
	.byte	14
	.uleb128	16
	.byte	4
	.long	.Lc236-.Lc235
	.byte	5
	.uleb128	6
	.uleb128	4
	.byte	4
	.long	.Lc237-.Lc236
	.byte	13
	.uleb128	6
	.balign 4,0
.Lc409:
	.long	.Lc412-.Lc411
.Lc411:
	.secrel32	.Lc276
	.quad	.Lc239
	.quad	.Lc238-.Lc239
	.byte	4
	.long	.Lc240-.Lc239
	.byte	14
	.uleb128	16
	.byte	4
	.long	.Lc241-.Lc240
	.byte	5
	.uleb128	6
	.uleb128	4
	.byte	4
	.long	.Lc242-.Lc241
	.byte	13
	.uleb128	6
	.byte	4
	.long	.Lc243-.Lc242
	.byte	14
	.uleb128	8
	.balign 4,0
.Lc412:
	.long	.Lc415-.Lc414
.Lc414:
	.secrel32	.Lc276
	.quad	.Lc245
	.quad	.Lc244-.Lc245
	.byte	4
	.long	.Lc246-.Lc245
	.byte	14
	.uleb128	16
	.byte	4
	.long	.Lc247-.Lc246
	.byte	5
	.uleb128	6
	.uleb128	4
	.byte	4
	.long	.Lc248-.Lc247
	.byte	13
	.uleb128	6
	.balign 4,0
.Lc415:
	.long	.Lc418-.Lc417
.Lc417:
	.secrel32	.Lc276
	.quad	.Lc250
	.quad	.Lc249-.Lc250
	.byte	4
	.long	.Lc251-.Lc250
	.byte	14
	.uleb128	16
	.byte	4
	.long	.Lc252-.Lc251
	.byte	5
	.uleb128	6
	.uleb128	4
	.byte	4
	.long	.Lc253-.Lc252
	.byte	13
	.uleb128	6
	.byte	4
	.long	.Lc254-.Lc253
	.byte	14
	.uleb128	8
	.balign 4,0
.Lc418:
	.long	.Lc421-.Lc420
.Lc420:
	.secrel32	.Lc276
	.quad	.Lc256
	.quad	.Lc255-.Lc256
	.byte	4
	.long	.Lc257-.Lc256
	.byte	14
	.uleb128	16
	.byte	4
	.long	.Lc258-.Lc257
	.byte	5
	.uleb128	6
	.uleb128	4
	.byte	4
	.long	.Lc259-.Lc258
	.byte	13
	.uleb128	6
	.balign 4,0
.Lc421:
	.long	.Lc424-.Lc423
.Lc423:
	.secrel32	.Lc276
	.quad	.Lc261
	.quad	.Lc260-.Lc261
	.byte	4
	.long	.Lc262-.Lc261
	.byte	7
	.uleb128	16
	.byte	4
	.long	.Lc263-.Lc262
	.byte	14
	.uleb128	16
	.byte	4
	.long	.Lc264-.Lc263
	.byte	5
	.uleb128	6
	.uleb128	4
	.byte	4
	.long	.Lc265-.Lc264
	.byte	13
	.uleb128	6
	.balign 4,0
.Lc424:
	.long	.Lc427-.Lc426
.Lc426:
	.secrel32	.Lc276
	.quad	.Lc267
	.quad	.Lc266-.Lc267
	.byte	4
	.long	.Lc268-.Lc267
	.byte	14
	.uleb128	16
	.byte	4
	.long	.Lc269-.Lc268
	.byte	5
	.uleb128	6
	.uleb128	4
	.byte	4
	.long	.Lc270-.Lc269
	.byte	13
	.uleb128	6
	.balign 4,0
.Lc427:
	.long	.Lc430-.Lc429
.Lc429:
	.secrel32	.Lc276
	.quad	.Lc272
	.quad	.Lc271-.Lc272
	.byte	4
	.long	.Lc273-.Lc272
	.byte	14
	.uleb128	16
	.byte	4
	.long	.Lc274-.Lc273
	.byte	5
	.uleb128	6
	.uleb128	4
	.byte	4
	.long	.Lc275-.Lc274
	.byte	13
	.uleb128	6
	.balign 4,0
.Lc430:
# End asmlist al_dwarf_frame
# Begin asmlist al_dwarf_info

.section .text.z_DEBUGEND_$P$DISTENCWORKERCLI,"ax"
.globl	DEBUGEND_$P$DISTENCWORKERCLI
DEBUGEND_$P$DISTENCWORKERCLI:
# End asmlist al_end

